ASxxxx Linker V03.00/V05.40 + sdld,  page 1.
Hexadecimal  [32-Bits]

Area                                    Addr        Size        Decimal Bytes (Attributes)
--------------------------------        ----        ----        ------- ----- ------------
.  .ABS.                            00000000    00000000 =           0. bytes (ABS,CON)

      Value  Global                              Global Defined In Module
      -----  --------------------------------   ------------------------
     00000000  .__.ABS.                           
     00000000  _rRAMG                             
     00000000  l__BASE                         
     00000000  l__BSS                          
     00000000  l__CABS                         
     00000000  l__CODE_0                       
     00000000  l__CRASH_HEADER                 
     00000000  l__CRASH_SCRATCH                
     00000000  l__DABS                         
     00000000  l__HEADER                       
     00000000  l__HEADER_LCD                   
     00000000  l__HEADER_SIO                   
     00000000  l__HEADER_TIMER                 
     00000000  l__HEAP                         
     00000000  l__HEAP_END                     
     00000000  l__HRAM                         
     00000000  l__LIT                          
     00000000  s__CABS                         
     00000000  s__CRASH_HEADER                 
     00000000  s__CRASH_HEADER0                
     00000000  s__CRASH_HEADER1                
     00000000  s__CRASH_SCRATCH                
     00000000  s__CRASH_SCRATCH2               
     00000000  s__DABS                         
     00000000  s__HEADER                       
     00000000  s__HEADER0                      
     00000000  s__HEADER1                      
     00000000  s__HEADER10                     
     00000000  s__HEADER11                     
     00000000  s__HEADER2                      
     00000000  s__HEADER3                      
     00000000  s__HEADER4                      
     00000000  s__HEADER5                      
     00000000  s__HEADER6                      
     00000000  s__HEADER7                      
     00000000  s__HEADER8                      
     00000000  s__HEADER9                      
     00000000  s__HEADER_LCD                   
     00000000  s__HEADER_LCD0                  
     00000000  s__HEADER_SIO                   
     00000000  s__HEADER_SIO0                  
     00000000  s__HEADER_TIMER                 
     00000000  s__HEADER_TIMER0                
     00000000  s__HEADERa                      
     00000000  s__HEADERb                      
     00000000  s__HEADERc                      
     00000000  s__HEADERd                      
     00000000  s__HEADERe                      
     00000000  s__HEADERf                      
     00000000  s__HRAM                         
ASxxxx Linker V03.00/V05.40 + sdld,  page 2.
Hexadecimal  [32-Bits]

Area                                    Addr        Size        Decimal Bytes (Attributes)
--------------------------------        ----        ----        ------- ----- ------------
.  .ABS.                            00000000    00000000 =           0. bytes (ABS,CON)

      Value  Global                              Global Defined In Module
      -----  --------------------------------   ------------------------
     00000000  s__HRAM12                       
     00000001  ___bank_ACTOR                      actor
     00000001  ___bank_VM_SGB                     vm_sgb
     00000001  b_activate_actor                   actor
     00000001  b_activate_actors_in_col           actor
     00000001  b_activate_actors_in_row           actor
     00000001  b_actor_at_tile                    actor
     00000001  b_actor_get_frame_offset           actor
     00000001  b_actor_in_front_of_player         actor
     00000001  b_actor_overlapping_bb             actor
     00000001  b_actor_overlapping_player         actor
     00000001  b_actor_set_anim_idle              actor
     00000001  b_actor_set_anim_moving            actor
     00000001  b_actor_set_dir                    actor
     00000001  b_actor_set_frame_offset           actor
     00000001  b_actor_set_frames                 actor
     00000001  b_actors_handle_player_collision   actor
     00000001  b_actors_init                      actor
     00000001  b_check_collision_in_direction     actor
     00000001  b_deactivate_actor                 actor
     00000001  b_platform_init                    platform
     00000001  b_platform_update                  platform
     00000001  b_player_init                      actor
     00000001  b_scroll_init                      scroll
     00000001  b_scroll_repaint                   scroll
     00000001  b_scroll_reset                     scroll
     00000001  b_scroll_update                    scroll
     00000001  b_ui_draw_frame                    ui
     00000001  b_ui_draw_text_buffer_char         ui
     00000001  b_ui_init                          ui
     00000001  b_ui_load_tiles                    ui
     00000001  b_ui_run_menu                      ui
     00000001  b_ui_run_modal                     ui
     00000001  b_ui_set_start_tile                ui
     00000001  l__GSFINAL                      
     00000001  l__HEADER0                      
     00000001  l__HEADER5                      
     00000001  l__HEADERa                      
     00000001  l__HEADERb                      
     00000001  l__HEADERc                      
     00000001  l__HEADERe                      
     00000001  l__HEADERf                      
     00000002  ___bank_VM_ACTOR                   vm_actor
     00000002  ___bank_VM_MAIN                    vm
     00000002  ___bank_bg_chrisbedroom_tilemap_   bg_chrisbedroom_tilemap_attr
     00000002  ___bank_bg_chrislevel1_tileset     bg_chrislevel1_tileset
     00000002  ___bank_font_gbs_variable_width    font_gbs_variable_width
     00000002  ___bank_scene_logo_sprites         scene_logo_sprites
     00000002  b_script_detach_hthread            vm
     00000002  b_script_execute                   vm
     00000002  b_script_runner_init               vm
ASxxxx Linker V03.00/V05.40 + sdld,  page 3.
Hexadecimal  [32-Bits]

Area                                    Addr        Size        Decimal Bytes (Attributes)
--------------------------------        ----        ----        ------- ----- ------------
.  .ABS.                            00000000    00000000 =           0. bytes (ABS,CON)

      Value  Global                              Global Defined In Module
      -----  --------------------------------   ------------------------
     00000002  b_script_terminate                 vm
     00000002  b_vm_actor_activate                vm_actor
     00000002  b_vm_actor_begin_update            vm_actor
     00000002  b_vm_actor_deactivate              vm_actor
     00000002  b_vm_actor_emote                   vm_actor
     00000002  b_vm_actor_get_angle               vm_actor
     00000002  b_vm_actor_get_anim_frame          vm_actor
     00000002  b_vm_actor_get_dir                 vm_actor
     00000002  b_vm_actor_get_pos                 vm_actor
     00000002  b_vm_actor_move_cancel             vm_actor
     00000002  b_vm_actor_move_to                 vm_actor
     00000002  b_vm_actor_replace_tile            vm_actor
     00000002  b_vm_actor_set_anim                vm_actor
     00000002  b_vm_actor_set_anim_frame          vm_actor
     00000002  b_vm_actor_set_anim_set            vm_actor
     00000002  b_vm_actor_set_anim_tick           vm_actor
     00000002  b_vm_actor_set_bounds              vm_actor
     00000002  b_vm_actor_set_dir                 vm_actor
     00000002  b_vm_actor_set_flags               vm_actor
     00000002  b_vm_actor_set_move_speed          vm_actor
     00000002  b_vm_actor_set_pos                 vm_actor
     00000002  b_vm_actor_set_spritesheet         vm_actor
     00000002  b_vm_actor_set_spritesheet_by_re   vm_actor
     00000002  b_vm_actor_terminate_update        vm_actor
     00000002  b_vm_call                          vm
     00000002  b_vm_call_far                      vm
     00000002  b_vm_get_indirect                  vm
     00000002  b_vm_get_int16                     vm
     00000002  b_vm_get_int8                      vm
     00000002  b_vm_get_tlocal                    vm
     00000002  b_vm_get_uint8                     vm
     00000002  b_vm_idle                          vm
     00000002  b_vm_if                            vm
     00000002  b_vm_if_const                      vm
     00000002  b_vm_init_rng                      vm
     00000002  b_vm_invoke                        vm
     00000002  b_vm_join                          vm
     00000002  b_vm_jump                          vm
     00000002  b_vm_lock                          vm
     00000002  b_vm_loop                          vm
     00000002  b_vm_memcpy                        vm
     00000002  b_vm_memset                        vm
     00000002  b_vm_poll_loaded                   vm
     00000002  b_vm_pop                           vm
     00000002  b_vm_push                          vm
     00000002  b_vm_push_reference                vm
     00000002  b_vm_push_value                    vm
     00000002  b_vm_push_value_ind                vm
     00000002  b_vm_raise                         vm
     00000002  b_vm_rand                          vm
     00000002  b_vm_reserve                       vm
ASxxxx Linker V03.00/V05.40 + sdld,  page 4.
Hexadecimal  [32-Bits]

Area                                    Addr        Size        Decimal Bytes (Attributes)
--------------------------------        ----        ----        ------- ----- ------------
.  .ABS.                            00000000    00000000 =           0. bytes (ABS,CON)

      Value  Global                              Global Defined In Module
      -----  --------------------------------   ------------------------
     00000002  b_vm_ret                           vm
     00000002  b_vm_ret_far                       vm
     00000002  b_vm_set                           vm
     00000002  b_vm_set_const                     vm
     00000002  b_vm_set_const_int16               vm
     00000002  b_vm_set_const_int8                vm
     00000002  b_vm_set_indirect                  vm
     00000002  b_vm_set_int16                     vm
     00000002  b_vm_set_int8                      vm
     00000002  b_vm_set_uint8                     vm
     00000002  b_vm_terminate                     vm
     00000002  b_vm_test_terminate                vm
     00000002  b_vm_unlock                        vm
     00000002  b_wait_frames                      vm
     00000002  l__HEADER10                     
     00000002  l__HEADER6                      
     00000002  l__HEADERd                      
     00000003  ___bank_bg_chrislevel1_tilemap     bg_chrislevel1_tilemap
     00000003  ___bank_bg_chrislevel1_tilemap_a   bg_chrislevel1_tilemap_attr
     00000003  ___bank_bg_rosiesbathroom2_tiles   bg_rosiesbathroom2_tileset
     00000003  ___bank_bg_sleepy_fox_tileset      bg_sleepy_fox_tileset
     00000003  ___bank_scene_15_collisions        scene_15_collisions
     00000003  ___bank_scene_1_sprites            scene_1_sprites
     00000003  ___bank_song_rulz_intro_0_Data     song_rulz_intro_0_Data
     00000003  b_do_load_palette                  data_manager
     00000003  b_load_background                  data_manager
     00000003  b_load_bkg_tileset                 data_manager
     00000003  b_load_bounds                      data_manager
     00000003  b_load_emote                       data_manager
     00000003  b_load_init                        data_manager
     00000003  b_load_player                      data_manager
     00000003  b_load_scene                       data_manager
     00000003  b_load_sprite                      data_manager
     00000003  l__HEADER9                      
     00000003  l__HEADER_LCD0                  
     00000003  l__HRAM12                       
     00000004  ___bank_VM_GAMEBOY                 vm_gameboy
     00000004  ___bank_VM_UI                      vm_ui
     00000004  ___bank_actor_32_interact          actor_32_interact
     00000004  ___bank_bg_dungeonlevel4_bossroo   bg_dungeonlevel4_bossroom_ti
     00000004  ___bank_bg_hubarea_tileset         bg_hubarea_tileset
     00000004  ___bank_bg_menu_tileset            bg_menu_tileset
     00000004  ___bank_bg_win_tileset             bg_win_tileset
     00000004  b_adventure_init                   adventure
     00000004  b_adventure_update                 adventure
     00000004  b_shmup_init                       shmup
     00000004  b_shmup_update                     shmup
     00000004  b_topdown_init                     topdown
     00000004  b_topdown_update                   topdown
     00000004  b_vm_choice                        vm_ui
     00000004  b_vm_context_prepare               vm_gameboy
ASxxxx Linker V03.00/V05.40 + sdld,  page 5.
Hexadecimal  [32-Bits]

Area                                    Addr        Size        Decimal Bytes (Attributes)
--------------------------------        ----        ----        ------- ----- ------------
.  .ABS.                            00000000    00000000 =           0. bytes (ABS,CON)

      Value  Global                              Global Defined In Module
      -----  --------------------------------   ------------------------
     00000004  b_vm_display_text                  vm_ui
     00000004  b_vm_fade                          vm_gameboy
     00000004  b_vm_get_tile_xy                   vm_gameboy
     00000004  b_vm_input_attach                  vm_gameboy
     00000004  b_vm_input_detach                  vm_gameboy
     00000004  b_vm_input_get                     vm_gameboy
     00000004  b_vm_input_wait                    vm_gameboy
     00000004  b_vm_load_tiles                    vm_gameboy
     00000004  b_vm_load_tileset                  vm_gameboy
     00000004  b_vm_overlay_clear                 vm_ui
     00000004  b_vm_overlay_move_to               vm_ui
     00000004  b_vm_overlay_scroll                vm_ui
     00000004  b_vm_overlay_set_map               vm_ui
     00000004  b_vm_overlay_set_scroll            vm_ui
     00000004  b_vm_overlay_set_submap            vm_ui
     00000004  b_vm_overlay_set_submap_ex         vm_ui
     00000004  b_vm_overlay_setpos                vm_ui
     00000004  b_vm_overlay_show                  vm_ui
     00000004  b_vm_overlay_wait                  vm_ui
     00000004  b_vm_poll                          vm_gameboy
     00000004  b_vm_replace_tile                  vm_gameboy
     00000004  b_vm_replace_tile_xy               vm_gameboy
     00000004  b_vm_rumble                        vm_gameboy
     00000004  b_vm_set_font                      vm_ui
     00000004  b_vm_set_sprite_mode               vm_gameboy
     00000004  b_vm_set_sprites_visible           vm_gameboy
     00000004  b_vm_set_text_sound                vm_ui
     00000004  b_vm_switch_text_layer             vm_ui
     00000004  b_vm_timer_prepare                 vm_gameboy
     00000004  b_vm_timer_reset                   vm_gameboy
     00000004  b_vm_timer_set                     vm_gameboy
     00000004  b_vm_timer_stop                    vm_gameboy
     00000004  l__CRASH_HEADER1                
     00000004  l__HEADER_SIO0                  
     00000004  l__HEADER_TIMER0                
     00000005  ___bank_bg_chriscafe_tileset       bg_chriscafe_tileset
     00000005  ___bank_bg_chrislevel2_tileset     bg_chrislevel2_tileset
     00000005  ___bank_bg_chrislevel3_tileset     bg_chrislevel3_tileset
     00000005  ___bank_bg_computerlablevel3_til   bg_computerlablevel3_tileset
     00000005  ___bank_bg_dungeonlevel1_tilemap   bg_dungeonlevel1_tilemap_att
     00000005  ___bank_bg_dungeonlevel1_tileset   bg_dungeonlevel1_tileset
     00000005  ___bank_bg_dungeonlevel2_tilemap   bg_dungeonlevel2_tilemap
     00000005  ___bank_bg_dungeonlevel2_tilemap   bg_dungeonlevel2_tilemap_att
     00000005  ___bank_bg_dungeonlevel4_bossroo   bg_dungeonlevel4_bossroom_ti
     00000005  ___bank_bg_menu_tilemap_attr       bg_menu_tilemap_attr
     00000005  ___bank_bg_rosiesv2_tileset        bg_rosiesv2_tileset
     00000005  ___bank_scene_12_collisions        scene_12_collisions
     00000005  ___bank_scene_14_collisions        scene_14_collisions
     00000005  ___bank_script_init_menu           script_init_menu
     00000005  l__CRASH_HEADER0                
     00000005  l__HEADER1                      
ASxxxx Linker V03.00/V05.40 + sdld,  page 6.
Hexadecimal  [32-Bits]

Area                                    Addr        Size        Decimal Bytes (Attributes)
--------------------------------        ----        ----        ------- ----- ------------
.  .ABS.                            00000000    00000000 =           0. bytes (ABS,CON)

      Value  Global                              Global Defined In Module
      -----  --------------------------------   ------------------------
     00000006  ___bank_bg_chrislevel2_tilemap     bg_chrislevel2_tilemap
     00000006  ___bank_bg_chrislevel2_tilemap_a   bg_chrislevel2_tilemap_attr
     00000006  ___bank_bg_chrislivingroom_tiles   bg_chrislivingroom_tileset
     00000006  ___bank_bg_computerlablevel2_til   bg_computerlablevel2_tilemap
     00000006  ___bank_bg_computerlablevel2_til   bg_computerlablevel2_tilemap
     00000006  ___bank_bg_computerlablevel2_til   bg_computerlablevel2_tileset
     00000006  ___bank_bg_computerlablevel3_til   bg_computerlablevel3_tilemap
     00000006  ___bank_bg_dungeonlevel1_tilemap   bg_dungeonlevel1_tilemap
     00000006  ___bank_bg_dungeonlevel2_tileset   bg_dungeonlevel2_tileset
     00000006  ___bank_bg_dungeonlevel3_tileset   bg_dungeonlevel3_tileset
     00000006  ___bank_scene_11_collisions        scene_11_collisions
     00000006  ___bank_scene_16_collisions        scene_16_collisions
     00000006  b_core_reset                       core
     00000006  b_core_run                         core
     00000006  b_data_clear                       load_save
     00000006  b_data_init                        load_save
     00000006  b_data_load                        load_save
     00000006  b_data_peek                        load_save
     00000006  b_data_save                        load_save
     00000006  b_projectile_launch                projectiles
     00000006  b_projectiles_init                 projectiles
     00000006  b_trigger_activate_at              trigger
     00000006  b_trigger_activate_at_intersecti   trigger
     00000006  b_trigger_at_intersection          trigger
     00000006  b_trigger_at_tile                  trigger
     00000006  b_trigger_interact                 trigger
     00000006  b_trigger_reset                    trigger
     00000006  l__HEADER8                      
     00000007  ___bank_VM_CAMERA                  vm_camera
     00000007  ___bank_VM_SIO                     vm_sio
     00000007  ___bank_actor_8_interact           actor_8_interact
     00000007  ___bank_bg_chrisbedroom_tileset    bg_chrisbedroom_tileset
     00000007  ___bank_bg_chrislevel4_tileset     bg_chrislevel4_tileset
     00000007  ___bank_bg_computerlablevel1_til   bg_computerlablevel1_tilemap
     00000007  ___bank_bg_computerlablevel1_til   bg_computerlablevel1_tilemap
     00000007  ___bank_bg_computerlablevel1_til   bg_computerlablevel1_tileset
     00000007  ___bank_bg_computerlablevel4_til   bg_computerlablevel4_tileset
     00000007  ___bank_bg_dungeonlevel3_tilemap   bg_dungeonlevel3_tilemap
     00000007  ___bank_bg_hubarea_tilemap         bg_hubarea_tilemap
     00000007  ___bank_bg_hubarea_tilemap_attr    bg_hubarea_tilemap_attr
     00000007  ___bank_scene_0_collisions         scene_0_collisions
     00000007  ___bank_scene_10_collisions        scene_10_collisions
     00000007  ___bank_scene_13_collisions        scene_13_collisions
     00000007  ___bank_scene_18_collisions        scene_18_collisions
     00000007  ___bank_scene_8_collisions         scene_8_collisions
     00000007  b___HandleCrash_banked             
     00000007  b_atan2                            math_atan2
     00000007  b_camera_shake_frames              vm_camera
     00000007  b_fade_applypalettechange          fade_manager
     00000007  b_fade_in                          fade_manager
     00000007  b_fade_in_modal                    fade_manager
ASxxxx Linker V03.00/V05.40 + sdld,  page 7.
Hexadecimal  [32-Bits]

Area                                    Addr        Size        Decimal Bytes (Attributes)
--------------------------------        ----        ----        ------- ----- ------------
.  .ABS.                            00000000    00000000 =           0. bytes (ABS,CON)

      Value  Global                              Global Defined In Module
      -----  --------------------------------   ------------------------
     00000007  b_fade_init                        fade_manager
     00000007  b_fade_out                         fade_manager
     00000007  b_fade_out_modal                   fade_manager
     00000007  b_fade_setspeed                    fade_manager
     00000007  b_fade_update                      fade_manager
     00000007  b_gbprinter_detect                 gbprinter
     00000007  b_gbprinter_print_overlay          gbprinter
     00000007  b_pointnclick_init                 pointnclick
     00000007  b_pointnclick_update               pointnclick
     00000007  b_vm_camera_move_to                vm_camera
     00000007  b_vm_camera_set_pos                vm_camera
     00000007  b_vm_sio_exchange                  vm_sio
     00000007  b_vm_sio_set_mode                  vm_sio
     00000007  l__HEADER2                      
     00000008  ___bank_VM_PALETTE                 vm_palette
     00000008  ___bank_actor_0_update             actor_0_update
     00000008  ___bank_actor_15_interact          actor_15_interact
     00000008  ___bank_actor_24_interact          actor_24_interact
     00000008  ___bank_actor_32_update            actor_32_update
     00000008  ___bank_actor_33_update            actor_33_update
     00000008  ___bank_actor_34_update            actor_34_update
     00000008  ___bank_actor_35_update            actor_35_update
     00000008  ___bank_actor_36_update            actor_36_update
     00000008  ___bank_actor_37_update            actor_37_update
     00000008  ___bank_actor_38_update            actor_38_update
     00000008  ___bank_actor_39_update            actor_39_update
     00000008  ___bank_actor_40_update            actor_40_update
     00000008  ___bank_actor_41_update            actor_41_update
     00000008  ___bank_actor_42_update            actor_42_update
     00000008  ___bank_actor_43_update            actor_43_update
     00000008  ___bank_actor_6_update             actor_6_update
     00000008  ___bank_actor_7_update             actor_7_update
     00000008  ___bank_bg_chrisbedroom_tilemap    bg_chrisbedroom_tilemap
     00000008  ___bank_bg_chriscafe_tilemap       bg_chriscafe_tilemap
     00000008  ___bank_bg_chriscafe_tilemap_att   bg_chriscafe_tilemap_attr
     00000008  ___bank_bg_chrislevel3_tilemap     bg_chrislevel3_tilemap
     00000008  ___bank_bg_chrislevel4_tilemap     bg_chrislevel4_tilemap
     00000008  ___bank_bg_chrislivingroom_tilem   bg_chrislivingroom_tilemap
     00000008  ___bank_bg_computerlablevel4_til   bg_computerlablevel4_tilemap
     00000008  ___bank_bg_menu_tilemap            bg_menu_tilemap
     00000008  ___bank_bg_rosiesbathroom2_tilem   bg_rosiesbathroom2_tilemap
     00000008  ___bank_bg_sleepy_fox_tilemap      bg_sleepy_fox_tilemap
     00000008  ___bank_bg_win_tilemap             bg_win_tilemap
     00000008  ___bank_scene_12_actors            scene_12_actors
     00000008  ___bank_scene_17_collisions        scene_17_collisions
     00000008  ___bank_scene_18_init              scene_18_init
     00000008  ___bank_scene_19_collisions        scene_19_collisions
     00000008  ___bank_scene_1_collisions         scene_1_collisions
     00000008  ___bank_scene_21_collisions        scene_21_collisions
     00000008  ___bank_scene_22_collisions        scene_22_collisions
     00000008  ___bank_scene_2_collisions         scene_2_collisions
ASxxxx Linker V03.00/V05.40 + sdld,  page 8.
Hexadecimal  [32-Bits]

Area                                    Addr        Size        Decimal Bytes (Attributes)
--------------------------------        ----        ----        ------- ----- ------------
.  .ABS.                            00000000    00000000 =           0. bytes (ABS,CON)

      Value  Global                              Global Defined In Module
      -----  --------------------------------   ------------------------
     00000008  ___bank_scene_7_collisions         scene_7_collisions
     00000008  ___bank_sprite_player_tileset      sprite_player_tileset
     00000008  ___mute_mask_sound_legacy_0        sound_legacy_0
     00000008  b_set_sgb_border                   sgb_border
     00000008  b_vm_load_palette                  vm_palette
     00000008  l__HEADER3                      
     00000009  ___bank_VM_GBPRINTER               vm_gbprinter
     00000009  ___bank_VM_LOAD_SAVE               vm_load_save
     00000009  ___bank_VM_MATH                    vm_math
     00000009  ___bank_VM_MUSIC                   vm_music
     00000009  ___bank_VM_PROJECTILE              vm_projectiles
     00000009  ___bank_VM_RTC                     vm_rtc
     00000009  ___bank_VM_SCENE                   vm_scene
     00000009  ___bank_actor_0_interact           actor_0_interact
     00000009  ___bank_actor_10_update            actor_10_update
     00000009  ___bank_actor_11_update            actor_11_update
     00000009  ___bank_actor_14_interact          actor_14_interact
     00000009  ___bank_actor_16_update            actor_16_update
     00000009  ___bank_actor_17_update            actor_17_update
     00000009  ___bank_actor_18_update            actor_18_update
     00000009  ___bank_actor_19_update            actor_19_update
     00000009  ___bank_actor_1_interact           actor_1_interact
     00000009  ___bank_actor_20_update            actor_20_update
     00000009  ___bank_actor_22_update            actor_22_update
     00000009  ___bank_actor_23_update            actor_23_update
     00000009  ___bank_actor_25_interact          actor_25_interact
     00000009  ___bank_actor_26_update            actor_26_update
     00000009  ___bank_actor_27_interact          actor_27_interact
     00000009  ___bank_actor_28_interact          actor_28_interact
     00000009  ___bank_actor_2_interact           actor_2_interact
     00000009  ___bank_actor_30_interact          actor_30_interact
     00000009  ___bank_actor_33_interact          actor_33_interact
     00000009  ___bank_actor_34_interact          actor_34_interact
     00000009  ___bank_actor_35_interact          actor_35_interact
     00000009  ___bank_actor_36_interact          actor_36_interact
     00000009  ___bank_actor_37_interact          actor_37_interact
     00000009  ___bank_actor_38_interact          actor_38_interact
     00000009  ___bank_actor_39_interact          actor_39_interact
     00000009  ___bank_actor_3_interact           actor_3_interact
     00000009  ___bank_actor_40_interact          actor_40_interact
     00000009  ___bank_actor_41_interact          actor_41_interact
     00000009  ___bank_actor_42_interact          actor_42_interact
     00000009  ___bank_actor_43_interact          actor_43_interact
     00000009  ___bank_actor_44_update            actor_44_update
     00000009  ___bank_actor_45_update            actor_45_update
     00000009  ___bank_actor_46_update            actor_46_update
     00000009  ___bank_actor_47_update            actor_47_update
     00000009  ___bank_actor_48_update            actor_48_update
     00000009  ___bank_actor_49_update            actor_49_update
     00000009  ___bank_actor_50_update            actor_50_update
     00000009  ___bank_actor_54_interact          actor_54_interact
ASxxxx Linker V03.00/V05.40 + sdld,  page 9.
Hexadecimal  [32-Bits]

Area                                    Addr        Size        Decimal Bytes (Attributes)
--------------------------------        ----        ----        ------- ----- ------------
.  .ABS.                            00000000    00000000 =           0. bytes (ABS,CON)

      Value  Global                              Global Defined In Module
      -----  --------------------------------   ------------------------
     00000009  ___bank_actor_55_update            actor_55_update
     00000009  ___bank_actor_6_interact           actor_6_interact
     00000009  ___bank_actor_7_interact           actor_7_interact
     00000009  ___bank_actor_9_interact           actor_9_interact
     00000009  ___bank_avatar_font_0              avatar_font_0
     00000009  ___bank_bg_dungeonlevel4_bossroo   bg_dungeonlevel4_bossroom_ti
     00000009  ___bank_bg_rosiesv2_tilemap        bg_rosiesv2_tilemap
     00000009  ___bank_bg_rosiesv2_tilemap_attr   bg_rosiesv2_tilemap_attr
     00000009  ___bank_frame_image                frame_image
     00000009  ___bank_scene_0_actors             scene_0_actors
     00000009  ___bank_scene_10_actors            scene_10_actors
     00000009  ___bank_scene_11_actors            scene_11_actors
     00000009  ___bank_scene_13_actors            scene_13_actors
     00000009  ___bank_scene_14_actors            scene_14_actors
     00000009  ___bank_scene_15_actors            scene_15_actors
     00000009  ___bank_scene_16_actors            scene_16_actors
     00000009  ___bank_scene_17_actors            scene_17_actors
     00000009  ___bank_scene_18_actors            scene_18_actors
     00000009  ___bank_scene_19_actors            scene_19_actors
     00000009  ___bank_scene_19_init              scene_19_init
     00000009  ___bank_scene_1_actors             scene_1_actors
     00000009  ___bank_scene_20_actors            scene_20_actors
     00000009  ___bank_scene_20_collisions        scene_20_collisions
     00000009  ___bank_scene_21_actors            scene_21_actors
     00000009  ___bank_scene_2_actors             scene_2_actors
     00000009  ___bank_scene_3_collisions         scene_3_collisions
     00000009  ___bank_scene_8_actors             scene_8_actors
     00000009  ___bank_scene_logo_collisions      scene_logo_collisions
     00000009  ___bank_scene_title_screen_colli   scene_title_screen_collision
     00000009  ___bank_scene_title_screen_init    scene_title_screen_init
     00000009  ___bank_script_12                  script_12
     00000009  ___bank_sprite_fritzfull_tileset   sprite_fritzfull_tileset
     00000009  ___bank_sprite_healthbar_tileset   sprite_healthbar_tileset
     00000009  ___bank_sprite_kopturfull_tilese   sprite_kopturfull_tileset
     00000009  ___bank_sprite_machine_tileset     sprite_machine_tileset
     00000009  ___bank_sprite_player              sprite_player
     00000009  ___bank_sprite_squirrelfull_tile   sprite_squirrelfull_tileset
     00000009  ___bank_sprite_sword_tileset       sprite_sword_tileset
     00000009  ___bank_sprite_tottenfull_tilese   sprite_tottenfull_tileset
     00000009  b_erase_flash                      
     00000009  b_events_init                      events
     00000009  b_itoa_fmt                         vm_ui_a
     00000009  b_music_events_poll                music_manager
     00000009  b_music_init_driver                music_manager
     00000009  b_music_init_events                music_manager
     00000009  b_restore_sram                     flasher
     00000009  b_restore_sram_bank                flasher
     00000009  b_save_sram                        flasher
     00000009  b_save_sram_banks                  
     00000009  b_timers_init                      events
     00000009  b_vm_cos_scale                     vm_math
ASxxxx Linker V03.00/V05.40 + sdld,  page 10.
Hexadecimal  [32-Bits]

Area                                    Addr        Size        Decimal Bytes (Attributes)
--------------------------------        ----        ----        ------- ----- ------------
.  .ABS.                            00000000    00000000 =           0. bytes (ABS,CON)

      Value  Global                              Global Defined In Module
      -----  --------------------------------   ------------------------
     00000009  b_vm_music_mute                    vm_music
     00000009  b_vm_music_play                    vm_music
     00000009  b_vm_music_routine                 vm_music
     00000009  b_vm_music_setpos                  vm_music
     00000009  b_vm_music_stop                    vm_music
     00000009  b_vm_print_detect                  vm_gbprinter
     00000009  b_vm_print_overlay                 vm_gbprinter
     00000009  b_vm_projectile_launch             vm_projectiles
     00000009  b_vm_projectile_load_type          vm_projectiles
     00000009  b_vm_rtc_get                       vm_rtc
     00000009  b_vm_rtc_latch                     vm_rtc
     00000009  b_vm_rtc_set                       vm_rtc
     00000009  b_vm_rtc_start                     vm_rtc
     00000009  b_vm_save_clear                    vm_load_save
     00000009  b_vm_save_peek                     vm_load_save
     00000009  b_vm_scene_pop                     vm_scene
     00000009  b_vm_scene_pop_all                 vm_scene
     00000009  b_vm_scene_push                    vm_scene
     00000009  b_vm_scene_stack_reset             vm_scene
     00000009  b_vm_sfx_play                      vm_music
     00000009  b_vm_sin_scale                     vm_math
     00000009  b_vm_sound_mastervol               vm_music
     0000000A  ___bank_actor_12_interact          actor_12_interact
     0000000A  ___bank_actor_21_interact          actor_21_interact
     0000000A  ___bank_actor_24_update            actor_24_update
     0000000A  ___bank_actor_29_interact          actor_29_interact
     0000000A  ___bank_actor_4_update             actor_4_update
     0000000A  ___bank_actor_51_interact          actor_51_interact
     0000000A  ___bank_actor_52_interact          actor_52_interact
     0000000A  ___bank_actor_53_interact          actor_53_interact
     0000000A  ___bank_actor_56_interact          actor_56_interact
     0000000A  ___bank_actor_57_interact          actor_57_interact
     0000000A  ___bank_actor_58_interact          actor_58_interact
     0000000A  ___bank_actor_59_interact          actor_59_interact
     0000000A  ___bank_actor_5_update             actor_5_update
     0000000A  ___bank_actor_60_interact          actor_60_interact
     0000000A  ___bank_actor_61_interact          actor_61_interact
     0000000A  ___bank_actor_9_update             actor_9_update
     0000000A  ___bank_bg_chrisbedroom            bg_chrisbedroom
     0000000A  ___bank_bg_chriscafe               bg_chriscafe
     0000000A  ___bank_bg_chrislevel1             bg_chrislevel1
     0000000A  ___bank_bg_chrislevel2             bg_chrislevel2
     0000000A  ___bank_bg_chrislevel3             bg_chrislevel3
     0000000A  ___bank_bg_chrislevel4             bg_chrislevel4
     0000000A  ___bank_bg_chrislivingroom         bg_chrislivingroom
     0000000A  ___bank_bg_computerlablevel1       bg_computerlablevel1
     0000000A  ___bank_bg_computerlablevel2       bg_computerlablevel2
     0000000A  ___bank_bg_computerlablevel3       bg_computerlablevel3
     0000000A  ___bank_bg_computerlablevel4       bg_computerlablevel4
     0000000A  ___bank_bg_dungeonlevel1           bg_dungeonlevel1
     0000000A  ___bank_bg_dungeonlevel2           bg_dungeonlevel2
ASxxxx Linker V03.00/V05.40 + sdld,  page 11.
Hexadecimal  [32-Bits]

Area                                    Addr        Size        Decimal Bytes (Attributes)
--------------------------------        ----        ----        ------- ----- ------------
.  .ABS.                            00000000    00000000 =           0. bytes (ABS,CON)

      Value  Global                              Global Defined In Module
      -----  --------------------------------   ------------------------
     0000000A  ___bank_bg_dungeonlevel3           bg_dungeonlevel3
     0000000A  ___bank_bg_dungeonlevel4_bossroo   bg_dungeonlevel4_bossroom
     0000000A  ___bank_bg_hubarea                 bg_hubarea
     0000000A  ___bank_bg_menu                    bg_menu
     0000000A  ___bank_bg_rosiesbathroom2         bg_rosiesbathroom2
     0000000A  ___bank_bg_rosiesv2                bg_rosiesv2
     0000000A  ___bank_bg_sleepy_fox              bg_sleepy_fox
     0000000A  ___bank_bg_win                     bg_win
     0000000A  ___bank_bootstrap_script           
     0000000A  ___bank_cursor_image               cursor_image
     0000000A  ___bank_palette_0                  palette_0
     0000000A  ___bank_palette_1                  palette_1
     0000000A  ___bank_scene_0                    scene_0
     0000000A  ___bank_scene_0_init               scene_0_init
     0000000A  ___bank_scene_0_p_hit1             scene_0_p_hit1
     0000000A  ___bank_scene_0_projectiles        scene_0_projectiles
     0000000A  ___bank_scene_0_sprites            scene_0_sprites
     0000000A  ___bank_scene_0_triggers           scene_0_triggers
     0000000A  ___bank_scene_1                    scene_1
     0000000A  ___bank_scene_10                   scene_10
     0000000A  ___bank_scene_10_init              scene_10_init
     0000000A  ___bank_scene_10_p_hit1            scene_10_p_hit1
     0000000A  ___bank_scene_10_projectiles       scene_10_projectiles
     0000000A  ___bank_scene_10_sprites           scene_10_sprites
     0000000A  ___bank_scene_10_triggers          scene_10_triggers
     0000000A  ___bank_scene_11                   scene_11
     0000000A  ___bank_scene_11_init              scene_11_init
     0000000A  ___bank_scene_11_p_hit1            scene_11_p_hit1
     0000000A  ___bank_scene_11_projectiles       scene_11_projectiles
     0000000A  ___bank_scene_11_sprites           scene_11_sprites
     0000000A  ___bank_scene_11_triggers          scene_11_triggers
     0000000A  ___bank_scene_12                   scene_12
     0000000A  ___bank_scene_12_init              scene_12_init
     0000000A  ___bank_scene_12_p_hit1            scene_12_p_hit1
     0000000A  ___bank_scene_12_projectiles       scene_12_projectiles
     0000000A  ___bank_scene_12_sprites           scene_12_sprites
     0000000A  ___bank_scene_12_triggers          scene_12_triggers
     0000000A  ___bank_scene_13                   scene_13
     0000000A  ___bank_scene_13_init              scene_13_init
     0000000A  ___bank_scene_13_p_hit1            scene_13_p_hit1
     0000000A  ___bank_scene_13_projectiles       scene_13_projectiles
     0000000A  ___bank_scene_13_sprites           scene_13_sprites
     0000000A  ___bank_scene_13_triggers          scene_13_triggers
     0000000A  ___bank_scene_14                   scene_14
     0000000A  ___bank_scene_14_init              scene_14_init
     0000000A  ___bank_scene_14_p_hit1            scene_14_p_hit1
     0000000A  ___bank_scene_14_projectiles       scene_14_projectiles
     0000000A  ___bank_scene_14_sprites           scene_14_sprites
     0000000A  ___bank_scene_14_triggers          scene_14_triggers
     0000000A  ___bank_scene_15                   scene_15
     0000000A  ___bank_scene_15_init              scene_15_init
ASxxxx Linker V03.00/V05.40 + sdld,  page 12.
Hexadecimal  [32-Bits]

Area                                    Addr        Size        Decimal Bytes (Attributes)
--------------------------------        ----        ----        ------- ----- ------------
.  .ABS.                            00000000    00000000 =           0. bytes (ABS,CON)

      Value  Global                              Global Defined In Module
      -----  --------------------------------   ------------------------
     0000000A  ___bank_scene_15_p_hit1            scene_15_p_hit1
     0000000A  ___bank_scene_15_projectiles       scene_15_projectiles
     0000000A  ___bank_scene_15_sprites           scene_15_sprites
     0000000A  ___bank_scene_15_triggers          scene_15_triggers
     0000000A  ___bank_scene_16                   scene_16
     0000000A  ___bank_scene_16_init              scene_16_init
     0000000A  ___bank_scene_16_p_hit1            scene_16_p_hit1
     0000000A  ___bank_scene_16_projectiles       scene_16_projectiles
     0000000A  ___bank_scene_16_sprites           scene_16_sprites
     0000000A  ___bank_scene_16_triggers          scene_16_triggers
     0000000A  ___bank_scene_17                   scene_17
     0000000A  ___bank_scene_17_init              scene_17_init
     0000000A  ___bank_scene_17_projectiles       scene_17_projectiles
     0000000A  ___bank_scene_17_sprites           scene_17_sprites
     0000000A  ___bank_scene_17_triggers          scene_17_triggers
     0000000A  ___bank_scene_18                   scene_18
     0000000A  ___bank_scene_18_p_hit1            scene_18_p_hit1
     0000000A  ___bank_scene_18_projectiles       scene_18_projectiles
     0000000A  ___bank_scene_18_sprites           scene_18_sprites
     0000000A  ___bank_scene_18_triggers          scene_18_triggers
     0000000A  ___bank_scene_19                   scene_19
     0000000A  ___bank_scene_19_p_hit1            scene_19_p_hit1
     0000000A  ___bank_scene_19_projectiles       scene_19_projectiles
     0000000A  ___bank_scene_19_sprites           scene_19_sprites
     0000000A  ___bank_scene_19_triggers          scene_19_triggers
     0000000A  ___bank_scene_1_init               scene_1_init
     0000000A  ___bank_scene_1_projectiles        scene_1_projectiles
     0000000A  ___bank_scene_1_triggers           scene_1_triggers
     0000000A  ___bank_scene_2                    scene_2
     0000000A  ___bank_scene_20                   scene_20
     0000000A  ___bank_scene_20_init              scene_20_init
     0000000A  ___bank_scene_20_projectiles       scene_20_projectiles
     0000000A  ___bank_scene_20_sprites           scene_20_sprites
     0000000A  ___bank_scene_20_triggers          scene_20_triggers
     0000000A  ___bank_scene_21                   scene_21
     0000000A  ___bank_scene_21_init              scene_21_init
     0000000A  ___bank_scene_21_projectiles       scene_21_projectiles
     0000000A  ___bank_scene_21_sprites           scene_21_sprites
     0000000A  ___bank_scene_21_triggers          scene_21_triggers
     0000000A  ___bank_scene_22                   scene_22
     0000000A  ___bank_scene_22_actors            scene_22_actors
     0000000A  ___bank_scene_22_init              scene_22_init
     0000000A  ___bank_scene_22_projectiles       scene_22_projectiles
     0000000A  ___bank_scene_22_sprites           scene_22_sprites
     0000000A  ___bank_scene_22_triggers          scene_22_triggers
     0000000A  ___bank_scene_2_init               scene_2_init
     0000000A  ___bank_scene_2_projectiles        scene_2_projectiles
     0000000A  ___bank_scene_2_sprites            scene_2_sprites
     0000000A  ___bank_scene_2_triggers           scene_2_triggers
     0000000A  ___bank_scene_3                    scene_3
     0000000A  ___bank_scene_3_init               scene_3_init
ASxxxx Linker V03.00/V05.40 + sdld,  page 13.
Hexadecimal  [32-Bits]

Area                                    Addr        Size        Decimal Bytes (Attributes)
--------------------------------        ----        ----        ------- ----- ------------
.  .ABS.                            00000000    00000000 =           0. bytes (ABS,CON)

      Value  Global                              Global Defined In Module
      -----  --------------------------------   ------------------------
     0000000A  ___bank_scene_7                    scene_7
     0000000A  ___bank_scene_7_actors             scene_7_actors
     0000000A  ___bank_scene_7_init               scene_7_init
     0000000A  ___bank_scene_7_projectiles        scene_7_projectiles
     0000000A  ___bank_scene_7_sprites            scene_7_sprites
     0000000A  ___bank_scene_7_triggers           scene_7_triggers
     0000000A  ___bank_scene_8                    scene_8
     0000000A  ___bank_scene_8_init               scene_8_init
     0000000A  ___bank_scene_8_p_hit1             scene_8_p_hit1
     0000000A  ___bank_scene_8_projectiles        scene_8_projectiles
     0000000A  ___bank_scene_8_sprites            scene_8_sprites
     0000000A  ___bank_scene_8_triggers           scene_8_triggers
     0000000A  ___bank_scene_logo                 scene_logo
     0000000A  ___bank_scene_logo_init            scene_logo_init
     0000000A  ___bank_scene_logo_projectiles     scene_logo_projectiles
     0000000A  ___bank_scene_title_screen         scene_title_screen
     0000000A  ___bank_script_14                  script_14
     0000000A  ___bank_script_engine_init         
     0000000A  ___bank_script_input_0             script_input_0
     0000000A  ___bank_script_input_1             script_input_1
     0000000A  ___bank_sound_legacy_0             sound_legacy_0
     0000000A  ___bank_sprite_bullet              sprite_bullet
     0000000A  ___bank_sprite_bullet_tileset      sprite_bullet_tileset
     0000000A  ___bank_sprite_dartwallsprite      sprite_dartwallsprite
     0000000A  ___bank_sprite_dartwallsprite_ti   sprite_dartwallsprite_tilese
     0000000A  ___bank_sprite_flashcard           sprite_flashcard
     0000000A  ___bank_sprite_flashcard_tileset   sprite_flashcard_tileset
     0000000A  ___bank_sprite_fritzfull           sprite_fritzfull
     0000000A  ___bank_sprite_gardenbook          sprite_gardenbook
     0000000A  ___bank_sprite_gardenbook_tilese   sprite_gardenbook_tileset
     0000000A  ___bank_sprite_healthbar           sprite_healthbar
     0000000A  ___bank_sprite_kopturfull          sprite_kopturfull
     0000000A  ___bank_sprite_levelbook           sprite_levelbook
     0000000A  ___bank_sprite_levelbook_tileset   sprite_levelbook_tileset
     0000000A  ___bank_sprite_locked_door         sprite_locked_door
     0000000A  ___bank_sprite_locked_door_tiles   sprite_locked_door_tileset
     0000000A  ___bank_sprite_machine             sprite_machine
     0000000A  ___bank_sprite_rosies              sprite_rosies
     0000000A  ___bank_sprite_rosies_tileset      sprite_rosies_tileset
     0000000A  ___bank_sprite_shield_sprite_16x   sprite_shield_sprite_16x16
     0000000A  ___bank_sprite_shield_sprite_16x   sprite_shield_sprite_16x16_t
     0000000A  ___bank_sprite_signpost            sprite_signpost
     0000000A  ___bank_sprite_signpost_tileset    sprite_signpost_tileset
     0000000A  ___bank_sprite_squirrelfull        sprite_squirrelfull
     0000000A  ___bank_sprite_sword               sprite_sword
     0000000A  ___bank_sprite_swordsprite_16x16   sprite_swordsprite_16x16
     0000000A  ___bank_sprite_swordsprite_16x16   sprite_swordsprite_16x16_til
     0000000A  ___bank_sprite_tottenfull          sprite_tottenfull
     0000000A  ___bank_spritesheet_none           spritesheet_none
     0000000A  ___bank_trigger_0_interact         trigger_0_interact
     0000000A  ___bank_trigger_10_interact        trigger_10_interact
ASxxxx Linker V03.00/V05.40 + sdld,  page 14.
Hexadecimal  [32-Bits]

Area                                    Addr        Size        Decimal Bytes (Attributes)
--------------------------------        ----        ----        ------- ----- ------------
.  .ABS.                            00000000    00000000 =           0. bytes (ABS,CON)

      Value  Global                              Global Defined In Module
      -----  --------------------------------   ------------------------
     0000000A  ___bank_trigger_11_interact        trigger_11_interact
     0000000A  ___bank_trigger_12_interact        trigger_12_interact
     0000000A  ___bank_trigger_13_interact        trigger_13_interact
     0000000A  ___bank_trigger_14_interact        trigger_14_interact
     0000000A  ___bank_trigger_15_interact        trigger_15_interact
     0000000A  ___bank_trigger_16_interact        trigger_16_interact
     0000000A  ___bank_trigger_17_interact        trigger_17_interact
     0000000A  ___bank_trigger_18_interact        trigger_18_interact
     0000000A  ___bank_trigger_19_interact        trigger_19_interact
     0000000A  ___bank_trigger_1_interact         trigger_1_interact
     0000000A  ___bank_trigger_20_interact        trigger_20_interact
     0000000A  ___bank_trigger_21_interact        trigger_21_interact
     0000000A  ___bank_trigger_22_interact        trigger_22_interact
     0000000A  ___bank_trigger_23_interact        trigger_23_interact
     0000000A  ___bank_trigger_24_interact        trigger_24_interact
     0000000A  ___bank_trigger_25_interact        trigger_25_interact
     0000000A  ___bank_trigger_26_interact        trigger_26_interact
     0000000A  ___bank_trigger_27_interact        trigger_27_interact
     0000000A  ___bank_trigger_28_interact        trigger_28_interact
     0000000A  ___bank_trigger_29_interact        trigger_29_interact
     0000000A  ___bank_trigger_2_interact         trigger_2_interact
     0000000A  ___bank_trigger_31_interact        trigger_31_interact
     0000000A  ___bank_trigger_32_interact        trigger_32_interact
     0000000A  ___bank_trigger_33_interact        trigger_33_interact
     0000000A  ___bank_trigger_34_interact        trigger_34_interact
     0000000A  ___bank_trigger_35_interact        trigger_35_interact
     0000000A  ___bank_trigger_3_interact         trigger_3_interact
     0000000A  ___bank_trigger_42_interact        trigger_42_interact
     0000000A  ___bank_trigger_43_interact        trigger_43_interact
     0000000A  ___bank_trigger_44_interact        trigger_44_interact
     0000000A  ___bank_trigger_4_interact         trigger_4_interact
     0000000A  ___bank_trigger_5_interact         trigger_5_interact
     0000000A  ___bank_trigger_6_interact         trigger_6_interact
     0000000A  ___bank_trigger_7_interact         trigger_7_interact
     0000000A  ___bank_trigger_8_interact         trigger_8_interact
     0000000A  ___bank_trigger_9_interact         trigger_9_interact
     0000000A  b_CGBZeroPalette                   palette
     0000000A  b_SIO_init                         sio
     0000000A  b_camera_init                      camera
     0000000A  b_camera_reset                     camera
     0000000A  b_input_init                       input
     0000000A  b_logo_init                        logo
     0000000A  b_logo_update                      logo
     0000000A  b_palette_init                     palette
     0000000A  b_parallax_init                    parallax
     0000000A  b_remove_LCD_ISRs                  interrupts
     0000000A  b_scroll_rect                      
     0000000C  __start_save                    
     0000001A  l__INITIALIZED                  
     0000001A  l__INITIALIZER                  
     00000027  l__GSINIT                       
ASxxxx Linker V03.00/V05.40 + sdld,  page 15.
Hexadecimal  [32-Bits]

Area                                    Addr        Size        Decimal Bytes (Attributes)
--------------------------------        ----        ----        ------- ----- ------------
.  .ABS.                            00000000    00000000 =           0. bytes (ABS,CON)

      Value  Global                              Global Defined In Module
      -----  --------------------------------   ------------------------
     00000030  l__HEADER7                      
     00000060  l__HEADER4                      
     000000AB  l__HEADER11                     
     000001CB  l__CRASH_SCRATCH2               
     00000200  s__CODE                         
     00000ECE  l__CODE                         
     000010CE  s__HOME                         
     00001992  l__DATA                         
     00002000  _rROMB0                            
     0000277B  l__CODE_10                      
     00002AAB  l__HOME                         
     00003000  _rROMB1                            
     00003B79  s__BASE                         
     00003B79  s__CODE_0                       
     00003B79  s__INITIALIZER                  
     00003B79  s__LIT                          
     00003B93  s__GSINIT                       
     00003BBA  s__GSFINAL                      
     00003FFB  l__CODE_1                       
     00003FFB  l__CODE_7                       
     00003FFC  l__CODE_4                       
     00003FFC  l__CODE_6                       
     00003FFD  l__CODE_5                       
     00003FFD  l__CODE_8                       
     00004000  _RTC_SELECT_REG                    vm_rtc
     00004000  _rRAMB                             
     00004000  l__CODE_2                       
     00004000  l__CODE_3                       
     00004000  l__CODE_9                       
     00006000  _RTC_LATCH_REG                     vm_rtc
     00008000  __VRAM                             
     00008000  __VRAM8000                         
     00008800  __VRAM8800                         
     00009000  __VRAM9000                         
     00009800  __SCRN0                            
     00009C00  __SCRN1                            
     0000A000  _RTC_VALUE_REG                     vm_rtc
     0000A000  __SRAM                             
     0000C000  __RAM                              
     0000C000  _shadow_OAM                     
     0000C0A0  s__DATA                         
     0000D000  __RAMBANK                          
     0000DA32  s__BSS                          
     0000DA32  s__INITIALIZED                  
     0000DA4C  s__HEAP                         
     0000DA4C  s__HEAP_END                     
     0000DF00  .STACK                          
     0000DF00  _shadow_OAM2                       absolute
     0000DFA0  _BkgPalette                        absolute
     0000DFE0  _vwf_tile_data                     absolute
     0000FE00  __OAMRAM                           
ASxxxx Linker V03.00/V05.40 + sdld,  page 16.
Hexadecimal  [32-Bits]

Area                                    Addr        Size        Decimal Bytes (Attributes)
--------------------------------        ----        ----        ------- ----- ------------
.  .ABS.                            00000000    00000000 =           0. bytes (ABS,CON)

      Value  Global                              Global Defined In Module
      -----  --------------------------------   ------------------------
     0000FF00  _P1_REG                            
     0000FF00  __IO                               
     0000FF01  _SB_REG                            
     0000FF02  _SC_REG                            
     0000FF04  _DIV_REG                           
     0000FF05  _TIMA_REG                          
     0000FF06  _TMA_REG                           
     0000FF07  _TAC_REG                           
     0000FF0F  _IF_REG                            
     0000FF10  _NR10_REG                          
     0000FF11  _NR11_REG                          
     0000FF12  _NR12_REG                          
     0000FF13  _NR13_REG                          
     0000FF14  _NR14_REG                          
     0000FF16  _NR21_REG                          
     0000FF17  _NR22_REG                          
     0000FF18  _NR23_REG                          
     0000FF19  _NR24_REG                          
     0000FF1A  _NR30_REG                          
     0000FF1B  _NR31_REG                          
     0000FF1C  _NR32_REG                          
     0000FF1D  _NR33_REG                          
     0000FF1E  _NR34_REG                          
     0000FF20  _NR41_REG                          
     0000FF21  _NR42_REG                          
     0000FF22  _NR43_REG                          
     0000FF23  _NR44_REG                          
     0000FF24  _NR50_REG                          
     0000FF25  _NR51_REG                          
     0000FF26  _NR52_REG                          
     0000FF30  _AUD3WAVE                          
     0000FF30  _PCM_SAMPLE                        
     0000FF30  __AUD3WAVERAM                      
     0000FF40  _LCDC_REG                          
     0000FF41  _STAT_REG                          
     0000FF42  _SCY_REG                           
     0000FF43  _SCX_REG                           
     0000FF44  _LY_REG                            
     0000FF45  _LYC_REG                           
     0000FF46  _DMA_REG                           
     0000FF47  _BGP_REG                           
     0000FF48  _OBP0_REG                          
     0000FF49  _OBP1_REG                          
     0000FF4A  _WY_REG                            
     0000FF4B  _WX_REG                            
     0000FF4D  _KEY1_REG                          
     0000FF4F  _VBK_REG                           
     0000FF51  _HDMA1_REG                         
     0000FF52  _HDMA2_REG                         
     0000FF53  _HDMA3_REG                         
     0000FF54  _HDMA4_REG                         
ASxxxx Linker V03.00/V05.40 + sdld,  page 17.
Hexadecimal  [32-Bits]

Area                                    Addr        Size        Decimal Bytes (Attributes)
--------------------------------        ----        ----        ------- ----- ------------
.  .ABS.                            00000000    00000000 =           0. bytes (ABS,CON)

      Value  Global                              Global Defined In Module
      -----  --------------------------------   ------------------------
     0000FF55  _HDMA5_REG                         
     0000FF56  _RP_REG                            
     0000FF68  _BCPS_REG                          
     0000FF69  _BCPD_REG                          
     0000FF6A  _OCPS_REG                          
     0000FF6B  _OCPD_REG                          
     0000FF70  _SVBK_REG                          
     0000FF76  _PCM12_REG                         
     0000FF77  _PCM34_REG                         
     0000FF80  .refresh_OAM                    
     0000FF80  __HRAM                             
     0000FFFF  _IE_REG                            
     00014000  s__CODE_1                       
     00024000  s__CODE_2                       
     00034000  s__CODE_3                       
     00044000  s__CODE_4                       
     00054000  s__CODE_5                       
     00064000  s__CODE_6                       
     00074000  s__CODE_7                       
     00084000  s__CODE_8                       
     00094000  s__CODE_9                       
     000A4000  s__CODE_10                      
ASxxxx Linker V03.00/V05.40 + sdld,  page 18.
Hexadecimal  [32-Bits]

Area                                    Addr        Size        Decimal Bytes (Attributes)
--------------------------------        ----        ----        ------- ----- ------------
_CODE                               00000200    00000ECE =        3790. bytes (REL,CON)

      Value  Global                              Global Defined In Module
      -----  --------------------------------   ------------------------
     00000200  ___HandleCrash                     
     0000020A  _SIO_send_byte                     
     0000021D  _SIO_receive                       
     0000022E  _GetWinAddr                        
     00000236  _GetBkgAddr                        
     00000244  _state_init                        
     00000249  _state_update                      
     0000026B  _ui_time_masks                     
     00000273  _ui_print_shift_char               
     000002F6  _ui_draw_frame_row                 
     000002FF  .ui_draw_frame_row                 
     00000328  _script_cmds                       vm_instructions
     00000560  _save_signature                    game_signature
     00000564  _start_scene_x                     
     00000566  _start_scene_y                     
     00000568  _start_scene_dir                   
     00000569  _start_scene                       
     0000056C  _start_player_move_speed           
     0000056D  _start_player_anim_tick            
     0000056E  _ui_fonts                          
     00000574  _core_reset_hook                   main
     0000057C  _main                              main
     00000584  _state_start_fns                   
     00000596  _state_update_fns                  
     000005A8  _hUGE_init                         hUGEDriver_obj
     000005AA  hUGE_init                          hUGEDriver_obj
     00000600  _hUGE_mute_channel                 hUGEDriver_obj
     00000602  hUGE_mute_channel                  hUGEDriver_obj
     00000850  _hUGE_set_position                 hUGEDriver_obj
     00000852  hUGE_set_position                  hUGEDriver_obj
     00000A17  _hUGE_dosound                      hUGEDriver_obj
     00000A17  hUGE_dosound                       hUGEDriver_obj
     00000D43  _get_vram_byte                     
     00000D4B  _get_win_tile_xy                   
     00000D53  _get_bkg_tile_xy                   
     00000D7A  _set_sprite_palette                CGB
     00000D7F  _set_bkg_palette                   CGB
     00000D82  .set_palette                       CGB
     00000DA1  _set_sprite_palette_entry          CGB
     00000DA6  _set_bkg_palette_entry             CGB
     00000DA9  .set_palette_entry                 CGB
     00000DC5  _hide_sprites_range                Metasprites
     00000DF4  __mulsuchar                        mul
     00000DF7  __muluschar                        mul
     00000E00  __mulschar                         mul
     00000E08  __mulint                           mul
     00000E27  __muluchar                         mul
     00000E39  _set_vram_byte                     
     00000E42  _set_win_tile_xy                   
     00000E4A  _set_bkg_tile_xy                   
ASxxxx Linker V03.00/V05.40 + sdld,  page 19.
Hexadecimal  [32-Bits]

Area                                    Addr        Size        Decimal Bytes (Attributes)
--------------------------------        ----        ----        ------- ----- ------------
_CODE                               00000200    00000ECE =        3790. bytes (REL,CON)

      Value  Global                              Global Defined In Module
      -----  --------------------------------   ------------------------
     00000E74  .sgb_check                         
     00000E74  _sgb_check                         
     00000EBC  _sgb_transfer                      
     00000EC1  .sgb_transfer                      
     00000F02  .copy_vram                         
     00000F08  _get_data                          
     00000F08  _set_data                          
     00000F08  _vmemcpy                           
     00000F56  ___move_metasprite                 Metasprites
     00000F93  ___memcpy                          
     00000F93  _memcpy                            
     00000FC5  _cpu_slow                          CGB
     00000FE0  _cpu_fast                          CGB
     00000FE7  __divsuchar                        divmod
     00000FED  __modsuchar                        divmod
     00000FF6  __divuschar                        divmod
     00000FFF  __moduschar                        divmod
     0000100B  __divschar                         divmod
     00001010  __modschar                         divmod
     00001017  __divsint                          divmod
     00001020  __modsint                          divmod
     0000102C  __divuchar                         divmod
     00001031  __moduchar                         divmod
     00001038  __divuint                          divmod
     00001041  __moduint                          divmod
     0000104D  .div8                              divmod
     0000104D  .mod8                              divmod
     00001055  .div16                             divmod
     00001055  .mod16                             divmod
     0000108B  .divu8                             divmod
     0000108B  .modu8                             divmod
     0000108E  .divu16                            divmod
     0000108E  .modu16                            divmod

ASxxxx Linker V03.00/V05.40 + sdld,  page 20.
Hexadecimal  [32-Bits]

Area                                    Addr        Size        Decimal Bytes (Attributes)
--------------------------------        ----        ----        ------- ----- ------------
_HEADER0                            00000000    00000001 =           1. bytes (ABS,CON)

      Value  Global                              Global Defined In Module
      -----  --------------------------------   ------------------------
     00000020  .call_hl                           Runtime

ASxxxx Linker V03.00/V05.40 + sdld,  page 21.
Hexadecimal  [32-Bits]

Area                                    Addr        Size        Decimal Bytes (Attributes)
--------------------------------        ----        ----        ------- ----- ------------
_HEADER1                            00000000    00000005 =           5. bytes (ABS,CON)

      Value  Global                              Global Defined In Module
      -----  --------------------------------   ------------------------
     00000028  .MemsetSmall                       Runtime

ASxxxx Linker V03.00/V05.40 + sdld,  page 22.
Hexadecimal  [32-Bits]

Area                                    Addr        Size        Decimal Bytes (Attributes)
--------------------------------        ----        ----        ------- ----- ------------
_HEADER2                            00000000    00000007 =           7. bytes (ABS,CON)

      Value  Global                              Global Defined In Module
      -----  --------------------------------   ------------------------
     00000030  .MemcpySmall                       Runtime

ASxxxx Linker V03.00/V05.40 + sdld,  page 23.
Hexadecimal  [32-Bits]

Area                                    Addr        Size        Decimal Bytes (Attributes)
--------------------------------        ----        ----        ------- ----- ------------
_HEADER3                            00000000    00000008 =           8. bytes (ABS,CON)

      Value  Global                              Global Defined In Module
      -----  --------------------------------   ------------------------
ASxxxx Linker V03.00/V05.40 + sdld,  page 24.
Hexadecimal  [32-Bits]

Area                                    Addr        Size        Decimal Bytes (Attributes)
--------------------------------        ----        ----        ------- ----- ------------
_HEADER4                            00000000    00000060 =          96. bytes (ABS,CON)

      Value  Global                              Global Defined In Module
      -----  --------------------------------   ------------------------
     00000080  .int                               Runtime
     0000008F  _wait_int_handler                  Runtime
     0000009C  __standard_VBL_handler             Runtime
     000000AB  _refresh_OAM                       Runtime
     000000CC  _set_interrupts                    Runtime

ASxxxx Linker V03.00/V05.40 + sdld,  page 25.
Hexadecimal  [32-Bits]

Area                                    Addr        Size        Decimal Bytes (Attributes)
--------------------------------        ----        ----        ------- ----- ------------
_HEADER5                            00000000    00000001 =           1. bytes (ABS,CON)

      Value  Global                              Global Defined In Module
      -----  --------------------------------   ------------------------
ASxxxx Linker V03.00/V05.40 + sdld,  page 26.
Hexadecimal  [32-Bits]

Area                                    Addr        Size        Decimal Bytes (Attributes)
--------------------------------        ----        ----        ------- ----- ------------
_HEADER6                            00000000    00000002 =           2. bytes (ABS,CON)

      Value  Global                              Global Defined In Module
      -----  --------------------------------   ------------------------
ASxxxx Linker V03.00/V05.40 + sdld,  page 27.
Hexadecimal  [32-Bits]

Area                                    Addr        Size        Decimal Bytes (Attributes)
--------------------------------        ----        ----        ------- ----- ------------
_HEADER7                            00000000    00000030 =          48. bytes (ABS,CON)

      Value  Global                              Global Defined In Module
      -----  --------------------------------   ------------------------
ASxxxx Linker V03.00/V05.40 + sdld,  page 28.
Hexadecimal  [32-Bits]

Area                                    Addr        Size        Decimal Bytes (Attributes)
--------------------------------        ----        ----        ------- ----- ------------
_HEADER8                            00000000    00000006 =           6. bytes (ABS,CON)

      Value  Global                              Global Defined In Module
      -----  --------------------------------   ------------------------
ASxxxx Linker V03.00/V05.40 + sdld,  page 29.
Hexadecimal  [32-Bits]

Area                                    Addr        Size        Decimal Bytes (Attributes)
--------------------------------        ----        ----        ------- ----- ------------
_HEADER9                            00000000    00000003 =           3. bytes (ABS,CON)

      Value  Global                              Global Defined In Module
      -----  --------------------------------   ------------------------
ASxxxx Linker V03.00/V05.40 + sdld,  page 30.
Hexadecimal  [32-Bits]

Area                                    Addr        Size        Decimal Bytes (Attributes)
--------------------------------        ----        ----        ------- ----- ------------
_HEADERa                            00000000    00000001 =           1. bytes (ABS,CON)

      Value  Global                              Global Defined In Module
      -----  --------------------------------   ------------------------
ASxxxx Linker V03.00/V05.40 + sdld,  page 31.
Hexadecimal  [32-Bits]

Area                                    Addr        Size        Decimal Bytes (Attributes)
--------------------------------        ----        ----        ------- ----- ------------
_HEADERb                            00000000    00000001 =           1. bytes (ABS,CON)

      Value  Global                              Global Defined In Module
      -----  --------------------------------   ------------------------
ASxxxx Linker V03.00/V05.40 + sdld,  page 32.
Hexadecimal  [32-Bits]

Area                                    Addr        Size        Decimal Bytes (Attributes)
--------------------------------        ----        ----        ------- ----- ------------
_HEADERc                            00000000    00000001 =           1. bytes (ABS,CON)

      Value  Global                              Global Defined In Module
      -----  --------------------------------   ------------------------
ASxxxx Linker V03.00/V05.40 + sdld,  page 33.
Hexadecimal  [32-Bits]

Area                                    Addr        Size        Decimal Bytes (Attributes)
--------------------------------        ----        ----        ------- ----- ------------
_HEADERd                            00000000    00000002 =           2. bytes (ABS,CON)

      Value  Global                              Global Defined In Module
      -----  --------------------------------   ------------------------
ASxxxx Linker V03.00/V05.40 + sdld,  page 34.
Hexadecimal  [32-Bits]

Area                                    Addr        Size        Decimal Bytes (Attributes)
--------------------------------        ----        ----        ------- ----- ------------
_HEADERe                            00000000    00000001 =           1. bytes (ABS,CON)

      Value  Global                              Global Defined In Module
      -----  --------------------------------   ------------------------
ASxxxx Linker V03.00/V05.40 + sdld,  page 35.
Hexadecimal  [32-Bits]

Area                                    Addr        Size        Decimal Bytes (Attributes)
--------------------------------        ----        ----        ------- ----- ------------
_HEADERf                            00000000    00000001 =           1. bytes (ABS,CON)

      Value  Global                              Global Defined In Module
      -----  --------------------------------   ------------------------
ASxxxx Linker V03.00/V05.40 + sdld,  page 36.
Hexadecimal  [32-Bits]

Area                                    Addr        Size        Decimal Bytes (Attributes)
--------------------------------        ----        ----        ------- ----- ------------
_HEADER10                           00000000    00000002 =           2. bytes (ABS,CON)

      Value  Global                              Global Defined In Module
      -----  --------------------------------   ------------------------
ASxxxx Linker V03.00/V05.40 + sdld,  page 37.
Hexadecimal  [32-Bits]

Area                                    Addr        Size        Decimal Bytes (Attributes)
--------------------------------        ----        ----        ------- ----- ------------
_HEADER11                           00000000    000000AB =         171. bytes (ABS,CON)

      Value  Global                              Global Defined In Module
      -----  --------------------------------   ------------------------
     00000150  .reset                             Runtime
     00000150  _reset                             Runtime
     00000157  .code_start                        Runtime
     000001B9  _exit                              Runtime
     000001BD  .wait_vbl_done                     Runtime
     000001BD  _vsync                             Runtime
     000001BD  _wait_vbl_done                     Runtime
     000001CD  .remove_VBL                        Runtime
     000001CD  _remove_VBL                        Runtime
     000001D0  .remove_int                        Runtime
     000001ED  .add_VBL                           Runtime
     000001ED  _add_VBL                           Runtime
     000001F0  .add_int                           Runtime

ASxxxx Linker V03.00/V05.40 + sdld,  page 38.
Hexadecimal  [32-Bits]

Area                                    Addr        Size        Decimal Bytes (Attributes)
--------------------------------        ----        ----        ------- ----- ------------
_HOME                               000010CE    00002AAB =       10923. bytes (REL,CON)

      Value  Global                              Global Defined In Module
      -----  --------------------------------   ------------------------
     000010CE  .memset_simple                     Runtime
     000010D7  .memcpy_simple                     Runtime
     000010F4  .display_off                       Runtime
     000010F4  _display_off                       Runtime
     0000110C  _actors_update                     actor
     0000150B  _SetBankedBkgData                  bankdata
     00001527  _SetBankedSpriteData               bankdata
     00001543  _SetBankedBkgTiles                 bankdata
     0000155F  _SetBankedWinTiles                 bankdata
     0000157B  _ReadBankedFarPtr                  bankdata
     0000159D  _ReadBankedUWORD                   bankdata
     000015B7  _MemcpyBanked                      bankdata
     000015D9  _MemcpyVRAMBanked                  bankdata
     00001608  _IndexOfFarPtr                     bankdata
     0000168D  _camera_update                     camera
     000017C0  _load_animations                   data_manager
     00001819  _events_update                     events
     000018EC  _timers_update                     events
     00001975  _input_update                      input
     00001998  .sio_ISR                           
     000019F2  .timer_ISR                         
     00001A07  _simple_LCD_isr                    interrupts
     00001A86  _fullscreen_LCD_isr                interrupts
     00001AB2  _VBL_isr                           interrupts
     00001AFC  _isqrt                             math
     00001B59  _sine_wave                         math
     00001C59  _dir_lookup                        math
     00001C61  _dir_angle_lookup                  math
     00001C65  _hUGETrackerRoutine                music_manager
     00001C8C  _music_events_update               music_manager
     00001D0E  _music_play_isr                    music_manager
     00001DAF  _parallax_LCD_isr                  parallax
     00001DEC  _projectiles_update                projectiles
     0000226D  _projectiles_render                projectiles
     000023C2  _scroll_load_pending_row           scroll
     00002448  _scroll_load_row                   scroll
     000024BD  _scroll_load_col                   scroll
     00002526  _scroll_load_pending_col           scroll
     000025AE  _set_bkg_submap                    
     000025F1  _set_xy_win_submap                 
     0000261E  .set_xy_win_submap                 
     00002627  .set_xy_bkg_submap                 
     00002636  .set_xy_submap                     
     00002680  _sfx_play_isr                      sfx_player
     00002759  _on_SIO_receive                    sio
     0000279A  _SIO_update                        sio
     00002801  _ui_update                         ui
     00002939  _vm_sgb_transfer                   vm_sgb
     00002986  _vm_load_text                      vm_ui
     00002BDC  _vm_switch                         vm
ASxxxx Linker V03.00/V05.40 + sdld,  page 39.
Hexadecimal  [32-Bits]

Area                                    Addr        Size        Decimal Bytes (Attributes)
--------------------------------        ----        ----        ------- ----- ------------
_HOME                               000010CE    00002AAB =       10923. bytes (REL,CON)

      Value  Global                              Global Defined In Module
      -----  --------------------------------   ------------------------
     00002D0D  _vm_beginthread                    vm
     00002E31  _vm_rpn                            vm
     0000360A  _vm_get_far                        vm
     00003678  _vm_call_native                    vm
     0000368B  _VM_STEP                           vm
     000036F5  _script_runner_update              vm
     0000385A  _fill_win_rect                     
     0000386C  _rand                              
     0000386C  _randw                             
     00003897  _initrand                          
     00003899  .initrand                          
     000038A2  _get_bkg_data                      
     000038A2  _get_win_data                      
     000038EF  _get_sprite_data                   
     00003922  _abs                               abs
     00003931  _set_win_tiles                     
     00003945  _set_tile_data                     
     0000394A  _set_bkg_data                      
     0000394A  _set_win_data                      
     00003952  _set_sprite_data                   
     00003982  _reverse                           reverse
     000039B6  ___call__banked                    far_ptr
     000039D3  _to_far_ptr                        far_ptr
     00003A09  .add_LCD                           
     00003A09  _add_LCD                           
     00003A0F  .remove_LCD                        
     00003A0F  _remove_LCD                        
     00003A15  .fill_rect_wtt                     
     00003A1E  .fill_rect_btt                     
     00003A6B  _fill_bkg_rect                     
     00003A7D  .padup                             
     00003A7D  _waitpadup                         
     00003A8D  .jpad                              
     00003A8D  _joypad                            
     00003AB5  _waitpad                           
     00003AB6  .wait_pad                          
     00003ABD  ___sdcc_call_hl                    call_hl
     00003ABE  _memset                            memset
     00003AF1  .set_xy_wtt                        SetTileMap
     00003AFA  .set_xy_btt                        SetTileMap
     00003B09  .set_xy_tt                         SetTileMap
     00003B4B  ___sdcc_bcall_ehl                  
     00003B65  _set_bkg_tiles                     
ASxxxx Linker V03.00/V05.40 + sdld,  page 40.
Hexadecimal  [32-Bits]

Area                                    Addr        Size        Decimal Bytes (Attributes)
--------------------------------        ----        ----        ------- ----- ------------
_INITIALIZER                        00003B79    0000001A =          26. bytes (REL,CON)

      Value  Global                              Global Defined In Module
      -----  --------------------------------   ------------------------
ASxxxx Linker V03.00/V05.40 + sdld,  page 41.
Hexadecimal  [32-Bits]

Area                                    Addr        Size        Decimal Bytes (Attributes)
--------------------------------        ----        ----        ------- ----- ------------
_GSINIT                             00003B93    00000027 =          39. bytes (REL,CON)

      Value  Global                              Global Defined In Module
      -----  --------------------------------   ------------------------
     00003B93  gsinit                             Runtime

ASxxxx Linker V03.00/V05.40 + sdld,  page 42.
Hexadecimal  [32-Bits]

Area                                    Addr        Size        Decimal Bytes (Attributes)
--------------------------------        ----        ----        ------- ----- ------------
_GSFINAL                            00003BBA    00000001 =           1. bytes (REL,CON)

      Value  Global                              Global Defined In Module
      -----  --------------------------------   ------------------------
ASxxxx Linker V03.00/V05.40 + sdld,  page 43.
Hexadecimal  [32-Bits]

Area                                    Addr        Size        Decimal Bytes (Attributes)
--------------------------------        ----        ----        ------- ----- ------------
_DATA                               0000C0A0    00001992 =        6546. bytes (REL,CON)

      Value  Global                              Global Defined In Module
      -----  --------------------------------   ------------------------
     0000C0A0  __cpu                              Runtime
     0000C0A1  __is_GBA                           Runtime
     0000C0A2  .mode                              Runtime
     0000C0A3  .sys_time                          Runtime
     0000C0A3  _sys_time                          Runtime
     0000C0A5  .int_0x40                          Runtime
     0000C0B1  _actors                            actor
     0000C4F5  _actors_active_head                actor
     0000C4F7  _actors_active_tail                actor
     0000C4F9  _actors_inactive_head              actor
     0000C4FB  _screen_x                          actor
     0000C4FC  _screen_y                          actor
     0000C4FD  _invalid                           actor
     0000C4FF  _player_moving                     actor
     0000C500  _player_iframes                    actor
     0000C501  _player_collision_actor            actor
     0000C503  _emote_actor                       actor
     0000C505  _emote_timer                       actor
     0000C506  _allocated_sprite_tiles            actor
     0000C507  _allocated_hardware_sprites        actor
     0000C513  _camera_x                          camera
     0000C515  _camera_y                          camera
     0000C517  _camera_offset_x                   camera
     0000C518  _camera_offset_y                   camera
     0000C519  _camera_deadzone_x                 camera
     0000C51A  _camera_deadzone_y                 camera
     0000C51B  _camera_settings                   camera
     0000C51F  _current_scene                     data_manager
     0000C522  _image_bank                        data_manager
     0000C523  _image_ptr                         data_manager
     0000C525  _image_attr_bank                   data_manager
     0000C526  _image_attr_ptr                    data_manager
     0000C528  _collision_bank                    data_manager
     0000C529  _collision_ptr                     data_manager
     0000C52B  _image_tile_width                  data_manager
     0000C52C  _image_tile_height                 data_manager
     0000C52D  _image_width                       data_manager
     0000C52F  _image_height                      data_manager
     0000C531  _sprites_len                       data_manager
     0000C532  _actors_len                        data_manager
     0000C533  _projectiles_len                   data_manager
     0000C534  _player_sprite_len                 data_manager
     0000C535  _scene_type                        data_manager
     0000C536  _scene_LCD_type                    data_manager
     0000C537  _scene_stack                       data_manager
     0000C577  _scene_stack_ptr                   data_manager
     0000C579  _scene_sprites_base_tiles          data_manager
     0000C5B9  _input_events                      events
     0000C5E1  _input_slots                       events
     0000C5E9  _timer_events                      events
ASxxxx Linker V03.00/V05.40 + sdld,  page 44.
Hexadecimal  [32-Bits]

Area                                    Addr        Size        Decimal Bytes (Attributes)
--------------------------------        ----        ----        ------- ----- ------------
_DATA                               0000C0A0    00001992 =        6546. bytes (REL,CON)

      Value  Global                              Global Defined In Module
      -----  --------------------------------   ------------------------
     0000C5FD  _timer_values                      events
     0000C605  _fade_running                      fade_manager
     0000C606  _fade_frames_per_step              fade_manager
     0000C607  _fade_timer                        fade_manager
     0000C60F  _joypads                           input
     0000C614  _frame_joy                         input
     0000C615  _last_joy                          input
     0000C616  _recent_joy                        input
     0000C617  _SIO_status                        
     0000C618  _link_byte_sent                    
     0000C619  _link_next_mode                    
     0000C61A  _save_blob_size                    load_save
     0000C61C  _routine_queue                     music_manager
     0000C620  _routine_queue_head                music_manager
     0000C621  _routine_queue_tail                music_manager
     0000C622  _music_events                      music_manager
     0000C636  _music_current_track_bank          music_manager
     0000C637  _music_mute_mask                   music_manager
     0000C638  _music_effective_mute              music_manager
     0000C639  _music_next_track                  music_manager
     0000C63B  _music_current_track               music_manager
     0000C63D  _music_play_isr_counter            music_manager
     0000C63E  _music_play_isr_pause              music_manager
     0000C63F  _music_global_mute_mask            music_manager
     0000C640  _music_sfx_priority                music_manager
     0000C641  _DMG_palette                       palette
     0000C644  _SprPalette                        palette
     0000C684  _parallax_rows                     parallax
     0000C696  _parallax_row                      parallax
     0000C698  _projectiles                       projectiles
     0000C751  _projectile_defs                   projectiles
     0000C7C4  _projectiles_active_head           projectiles
     0000C7C6  _projectiles_inactive_head         projectiles
     0000C7CD  _scroll_x                          scroll
     0000C7CF  _scroll_y                          scroll
     0000C7D1  _draw_scroll_x                     scroll
     0000C7D3  _draw_scroll_y                     scroll
     0000C7D5  _scroll_x_max                      scroll
     0000C7D7  _scroll_y_max                      scroll
     0000C7D9  _scroll_offset_x                   scroll
     0000C7DA  _scroll_offset_y                   scroll
     0000C7DB  _pending_h_x                       scroll
     0000C7DC  _pending_h_y                       scroll
     0000C7DD  _pending_h_i                       scroll
     0000C7DE  _pending_w_x                       scroll
     0000C7DF  _pending_w_y                       scroll
     0000C7E0  _pending_w_i                       scroll
     0000C7E1  _current_row                       scroll
     0000C7E3  _new_row                           scroll
     0000C7E5  _current_col                       scroll
     0000C7E7  _new_col                           scroll
ASxxxx Linker V03.00/V05.40 + sdld,  page 45.
Hexadecimal  [32-Bits]

Area                                    Addr        Size        Decimal Bytes (Attributes)
--------------------------------        ----        ----        ------- ----- ------------
_DATA                               0000C0A0    00001992 =        6546. bytes (REL,CON)

      Value  Global                              Global Defined In Module
      -----  --------------------------------   ------------------------
     0000C7E9  .image_tile_width                  
     0000C7EA  _sfx_play_bank                     sfx_player
     0000C7EB  _sfx_play_sample                   sfx_player
     0000C7ED  _sfx_frame_skip                    sfx_player
     0000C7EE  _link_operation_mode               sio
     0000C7EF  _link_packet                       sio
     0000C80F  _link_packet_len                   sio
     0000C810  _link_packet_ptr                   sio
     0000C812  _link_packet_received              sio
     0000C813  _link_packet_snd_len               sio
     0000C814  _link_packet_snd_ptr               sio
     0000C816  _link_packet_sent                  sio
     0000C817  __is_CGB                           system
     0000C818  __is_SGB                           system
     0000C819  __current_ram_bank                 system
     0000C81A  _triggers                          trigger
     0000C912  _last_trigger_tx                   trigger
     0000C913  _last_trigger_ty                   trigger
     0000C914  _last_trigger                      trigger
     0000C915  _win_pos_x                         ui
     0000C916  _win_dest_pos_x                    ui
     0000C917  _win_pos_y                         ui
     0000C918  _win_dest_pos_y                    ui
     0000C919  _win_speed                         ui
     0000C91A  _text_drawn                        ui
     0000C91B  _current_text_speed                ui
     0000C91C  _text_wait                         ui
     0000C91D  _text_options                      ui
     0000C91E  _text_in_speed                     ui
     0000C91F  _text_out_speed                    ui
     0000C920  _text_draw_speed                   ui
     0000C921  _text_ff_joypad                    ui
     0000C922  _text_ff                           ui
     0000C923  _text_bkg_fill                     ui
     0000C924  _ui_text_data                      ui
     0000CA2E  _vwf_current_mask                  ui
     0000CA2F  _vwf_current_rotate                ui
     0000CA30  _vwf_inverse_map                   ui
     0000CA31  _vwf_direction                     ui
     0000CA32  _vwf_current_font_desc             ui
     0000CA3A  _vwf_current_font_bank             ui
     0000CA3B  _vwf_current_font_idx              ui
     0000CA3C  _text_render_base_addr             ui
     0000CA3E  _text_scroll_addr                  ui
     0000CA40  _text_scroll_width                 ui
     0000CA41  _text_scroll_height                ui
     0000CA42  _text_scroll_fill                  ui
     0000CA43  _text_sound_mask                   ui
     0000CA44  _text_sound_bank                   ui
     0000CA45  _text_sound_data                   ui
     0000CA47  _overlay_priority                  ui
ASxxxx Linker V03.00/V05.40 + sdld,  page 46.
Hexadecimal  [32-Bits]

Area                                    Addr        Size        Decimal Bytes (Attributes)
--------------------------------        ----        ----        ------- ----- ------------
_DATA                               0000C0A0    00001992 =        6546. bytes (REL,CON)

      Value  Global                              Global Defined In Module
      -----  --------------------------------   ------------------------
     0000CA48  _text_palette                      ui
     0000CA4F  __itoa_fmt_len                     vm_ui_a
     0000CA50  .itoa_fmt_buf                      vm_ui_a
     0000CA53  _CTXS                              vm
     0000CB83  _first_ctx                         vm
     0000CB85  _free_ctxs                         vm
     0000CB87  _old_executing_ctx                 vm
     0000CB89  _executing_ctx                     vm
     0000CB8B  _vm_lock_state                     vm
     0000CB8C  _vm_loaded_state                   vm
     0000CB8D  _vm_exception_code                 vm
     0000CB8E  _vm_exception_params_length        vm
     0000CB8F  _vm_exception_params_bank          vm
     0000CB90  _vm_exception_params_offset        vm
     0000CB93  _script_memory                     vm
     0000D999  _grounded                          platform
     0000D99A  _on_slope                          platform
     0000D99B  _slope_y                           platform
     0000D99C  _on_ladder                         platform
     0000D99D  _pl_vel_x                          platform
     0000D99F  _pl_vel_y                          platform
     0000D9A1  _plat_min_vel                      platform
     0000D9A3  _plat_walk_vel                     platform
     0000D9A5  _plat_climb_vel                    platform
     0000D9A7  _plat_run_vel                      platform
     0000D9A9  _plat_walk_acc                     platform
     0000D9AB  _plat_run_acc                      platform
     0000D9AD  _plat_dec                          platform
     0000D9AF  _plat_jump_vel                     platform
     0000D9B1  _plat_grav                         platform
     0000D9B3  _plat_hold_grav                    platform
     0000D9B5  _plat_max_fall_vel                 platform
     0000D9B7  _shooter_reached_end               shmup
     0000D9B8  _shooter_dest                      shmup
     0000D9BA  _shooter_direction                 shmup
     0000D9BB  _topdown_grid                      topdown
     0000D9BC  ___rand_seed                       
     0000D9DA  _hUGE_current_wave                 hUGEDriver_obj
     0000D9DA  hUGE_current_wave                  hUGEDriver_obj
     0000D9DB  _hUGE_mute_mask                    hUGEDriver_obj
     0000DA22  ___call_banked_addr                far_ptr
     0000DA22  ___call_banked_ptr                 far_ptr
     0000DA24  ___call_banked_bank                far_ptr
     0000DA26  .int_0x48                          
     0000DA2E  ___current_metasprite              Metasprites
     0000DA30  ___current_base_tile               Metasprites
     0000DA31  ___current_base_prop               Metasprites

ASxxxx Linker V03.00/V05.40 + sdld,  page 47.
Hexadecimal  [32-Bits]

Area                                    Addr        Size        Decimal Bytes (Attributes)
--------------------------------        ----        ----        ------- ----- ------------
_INITIALIZED                        0000DA32    0000001A =          26. bytes (REL,CON)

      Value  Global                              Global Defined In Module
      -----  --------------------------------   ------------------------
     0000DA32  _fade_style                        fade_manager
     0000DA33  _game_time                         game_time
     0000DA34  _PRN_PKT_START                     gbprinter
     0000DA42  _hide_sprites                      interrupts
     0000DA43  _show_actors_on_overlay            interrupts
     0000DA44  _overlay_cut_scanline              interrupts
     0000DA45  __submap_tile_offset               
     0000DA46  _triggers_len                      trigger
     0000DA47  _exchange_state                    vm_sio
     0000DA48  _last_hit_trigger                  pointnclick
     0000DA49  _shooter_scroll_speed              shmup
     0000DA4A  ___render_shadow_OAM               Metasprites
     0000DA4B  __map_tile_offset                  SetTileMap

ASxxxx Linker V03.00/V05.40 + sdld,  page 48.
Hexadecimal  [32-Bits]

Area                                    Addr        Size        Decimal Bytes (Attributes)
--------------------------------        ----        ----        ------- ----- ------------
_HRAM12                             00000000    00000003 =           3. bytes (ABS,CON)

      Value  Global                              Global Defined In Module
      -----  --------------------------------   ------------------------
     0000FF90  __current_bank                     Runtime
     0000FF92  __shadow_OAM_base                  Runtime

ASxxxx Linker V03.00/V05.40 + sdld,  page 49.
Hexadecimal  [32-Bits]

Area                                    Addr        Size        Decimal Bytes (Attributes)
--------------------------------        ----        ----        ------- ----- ------------
_CODE_1                             00014000    00003FFB =       16379. bytes (REL,CON)

      Value  Global                              Global Defined In Module
      -----  --------------------------------   ------------------------
     00014000  ___func_ACTOR                      actor
     00014000  _actors_init                       actor
     0001403A  _emote_offsets                     actor
     00014049  _emote_metasprite                  actor
     00014055  _player_init                       actor
     0001406A  _deactivate_actor                  actor
     000141CB  _activate_actor                    actor
     0001430A  _activate_actors_in_row            actor
     00014401  _activate_actors_in_col            actor
     00014552  _actor_set_frames                  actor
     000145A8  _actor_set_frame_offset            actor
     000145E3  _actor_get_frame_offset            actor
     000145F5  _actor_set_anim_idle               actor
     00014623  _actor_set_anim_moving             actor
     00014654  _actor_set_dir                     actor
     000146B9  _actor_at_tile                     actor
     0001478D  _actor_in_front_of_player          actor
     00014841  _actor_overlapping_player          actor
     00014ADA  _actor_overlapping_bb              actor
     00014CF9  _actors_handle_player_collision    actor
     00014D85  _check_collision_in_direction      actor
     000155A3  _scroll_init                       scroll
     000155CD  _scroll_reset                      scroll
     000155ED  _scroll_update                     scroll
     000156FE  _scroll_viewport                   scroll
     00015B97  _scroll_repaint                    scroll
     00015BA7  _scroll_render_rows                scroll
     00015C3D  _scroll_queue_row                  scroll
     00015C5F  _scroll_queue_col                  scroll
     00015CAA  _ui_swap_tiles                     
     00015CF4  _ui_print_make_mask_lr             
     00015D10  _ui_print_make_mask_rl             
     00015D2C  _ui_init                           ui
     00015DFD  _ui_load_tiles                     ui
     00015E54  _ui_draw_frame                     ui
     00015EEE  _ui_print_reset                    ui
     00015F3F  _ui_set_start_tile                 ui
     00015F6B  _ui_print_render                   ui
     00016202  _ui_draw_text_buffer_char          ui
     000166E6  _ui_run_menu                       ui
     000168CF  _ui_run_modal                      ui
     00016989  ___func_VM_SGB                     vm_sgb
     00016989  _platform_init                     platform
     00016B03  _platform_update                   platform

ASxxxx Linker V03.00/V05.40 + sdld,  page 50.
Hexadecimal  [32-Bits]

Area                                    Addr        Size        Decimal Bytes (Attributes)
--------------------------------        ----        ----        ------- ----- ------------
_CODE_10                            000A4000    0000277B =       10107. bytes (REL,CON)

      Value  Global                              Global Defined In Module
      -----  --------------------------------   ------------------------
     000A4000  _bootstrap_script                  
     000A400B  _camera_init                       camera
     000A4029  _camera_reset                      camera
     000A4039  _input_init                        input
     000A405F  _remove_LCD_ISRs                   interrupts
     000A407A  _palette_init                      palette
     000A40B1  _CGBZeroPalette                    palette
     000A40C6  _parallax_init                     parallax
     000A40E6  _scroll_rect                       
     000A4123  _SIO_init                          sio
     000A414C  _actor_12_interact                 actor_12_interact
     000A41B1  _actor_21_interact                 actor_21_interact
     000A4216  _actor_24_update                   actor_24_update
     000A4246  _actor_29_interact                 actor_29_interact
     000A426A  _actor_4_update                    actor_4_update
     000A42B7  _actor_5_update                    actor_5_update
     000A4304  _actor_51_interact                 actor_51_interact
     000A4369  _actor_52_interact                 actor_52_interact
     000A43CE  _actor_53_interact                 actor_53_interact
     000A4433  _actor_56_interact                 actor_56_interact
     000A4498  _actor_57_interact                 actor_57_interact
     000A44FD  _actor_58_interact                 actor_58_interact
     000A4562  _actor_59_interact                 actor_59_interact
     000A45C7  _actor_60_interact                 actor_60_interact
     000A462D  _actor_61_interact                 actor_61_interact
     000A4692  _actor_9_update                    actor_9_update
     000A46C2  ___func_bg_chrisbedroom            bg_chrisbedroom
     000A46C2  _bg_chrisbedroom                   bg_chrisbedroom
     000A46D0  ___func_bg_chriscafe               bg_chriscafe
     000A46D0  _bg_chriscafe                      bg_chriscafe
     000A46DE  ___func_bg_chrislevel1             bg_chrislevel1
     000A46DE  _bg_chrislevel1                    bg_chrislevel1
     000A46EC  ___func_bg_chrislevel2             bg_chrislevel2
     000A46EC  _bg_chrislevel2                    bg_chrislevel2
     000A46FA  ___func_bg_chrislevel3             bg_chrislevel3
     000A46FA  _bg_chrislevel3                    bg_chrislevel3
     000A4708  ___func_bg_chrislevel4             bg_chrislevel4
     000A4708  _bg_chrislevel4                    bg_chrislevel4
     000A4716  ___func_bg_chrislivingroom         bg_chrislivingroom
     000A4716  _bg_chrislivingroom                bg_chrislivingroom
     000A4724  ___func_bg_computerlablevel1       bg_computerlablevel1
     000A4724  _bg_computerlablevel1              bg_computerlablevel1
     000A4732  ___func_bg_computerlablevel2       bg_computerlablevel2
     000A4732  _bg_computerlablevel2              bg_computerlablevel2
     000A4740  ___func_bg_computerlablevel3       bg_computerlablevel3
     000A4740  _bg_computerlablevel3              bg_computerlablevel3
     000A474E  ___func_bg_computerlablevel4       bg_computerlablevel4
     000A474E  _bg_computerlablevel4              bg_computerlablevel4
     000A475C  ___func_bg_dungeonlevel1           bg_dungeonlevel1
     000A475C  _bg_dungeonlevel1                  bg_dungeonlevel1
ASxxxx Linker V03.00/V05.40 + sdld,  page 51.
Hexadecimal  [32-Bits]

Area                                    Addr        Size        Decimal Bytes (Attributes)
--------------------------------        ----        ----        ------- ----- ------------
_CODE_10                            000A4000    0000277B =       10107. bytes (REL,CON)

      Value  Global                              Global Defined In Module
      -----  --------------------------------   ------------------------
     000A476A  ___func_bg_dungeonlevel2           bg_dungeonlevel2
     000A476A  _bg_dungeonlevel2                  bg_dungeonlevel2
     000A4778  ___func_bg_dungeonlevel3           bg_dungeonlevel3
     000A4778  _bg_dungeonlevel3                  bg_dungeonlevel3
     000A4786  ___func_bg_dungeonlevel4_bossroo   bg_dungeonlevel4_bossroom
     000A4786  _bg_dungeonlevel4_bossroom         bg_dungeonlevel4_bossroom
     000A4794  ___func_bg_hubarea                 bg_hubarea
     000A4794  _bg_hubarea                        bg_hubarea
     000A47A2  ___func_bg_menu                    bg_menu
     000A47A2  _bg_menu                           bg_menu
     000A47B0  ___func_bg_rosiesbathroom2         bg_rosiesbathroom2
     000A47B0  _bg_rosiesbathroom2                bg_rosiesbathroom2
     000A47BE  ___func_bg_rosiesv2                bg_rosiesv2
     000A47BE  _bg_rosiesv2                       bg_rosiesv2
     000A47CC  ___func_bg_sleepy_fox              bg_sleepy_fox
     000A47CC  _bg_sleepy_fox                     bg_sleepy_fox
     000A47DA  ___func_bg_win                     bg_win
     000A47DA  _bg_win                            bg_win
     000A47E8  ___func_cursor_image               cursor_image
     000A47E8  _cursor_image                      cursor_image
     000A47F8  ___func_palette_0                  palette_0
     000A47F8  _palette_0                         palette_0
     000A483B  ___func_palette_1                  palette_1
     000A483B  _palette_1                         palette_1
     000A487E  _scene_0_init                      scene_0_init
     000A4898  _scene_0_p_hit1                    scene_0_p_hit1
     000A48E1  ___func_scene_0_projectiles        scene_0_projectiles
     000A48E1  _scene_0_projectiles               scene_0_projectiles
     000A490F  ___func_scene_0_sprites            scene_0_sprites
     000A490F  _scene_0_sprites                   scene_0_sprites
     000A491E  ___func_scene_0_triggers           scene_0_triggers
     000A491E  _scene_0_triggers                  scene_0_triggers
     000A492E  ___func_scene_0                    scene_0
     000A492E  _scene_0                           scene_0
     000A4969  _scene_1_init                      scene_1_init
     000A4983  ___func_scene_1_projectiles        scene_1_projectiles
     000A4983  _scene_1_projectiles               scene_1_projectiles
     000A49B1  ___func_scene_1_triggers           scene_1_triggers
     000A49B1  _scene_1_triggers                  scene_1_triggers
     000A49B9  ___func_scene_1                    scene_1
     000A49B9  _scene_1                           scene_1
     000A49F4  _scene_10_init                     scene_10_init
     000A4A0E  _scene_10_p_hit1                   scene_10_p_hit1
     000A4A57  ___func_scene_10_projectiles       scene_10_projectiles
     000A4A57  _scene_10_projectiles              scene_10_projectiles
     000A4A85  ___func_scene_10_sprites           scene_10_sprites
     000A4A85  _scene_10_sprites                  scene_10_sprites
     000A4A94  ___func_scene_10_triggers          scene_10_triggers
     000A4A94  _scene_10_triggers                 scene_10_triggers
     000A4AAC  ___func_scene_10                   scene_10
     000A4AAC  _scene_10                          scene_10
ASxxxx Linker V03.00/V05.40 + sdld,  page 52.
Hexadecimal  [32-Bits]

Area                                    Addr        Size        Decimal Bytes (Attributes)
--------------------------------        ----        ----        ------- ----- ------------
_CODE_10                            000A4000    0000277B =       10107. bytes (REL,CON)

      Value  Global                              Global Defined In Module
      -----  --------------------------------   ------------------------
     000A4AE7  _scene_11_init                     scene_11_init
     000A4B01  _scene_11_p_hit1                   scene_11_p_hit1
     000A4B4A  ___func_scene_11_projectiles       scene_11_projectiles
     000A4B4A  _scene_11_projectiles              scene_11_projectiles
     000A4B78  ___func_scene_11_sprites           scene_11_sprites
     000A4B78  _scene_11_sprites                  scene_11_sprites
     000A4B84  ___func_scene_11_triggers          scene_11_triggers
     000A4B84  _scene_11_triggers                 scene_11_triggers
     000A4B9C  ___func_scene_11                   scene_11
     000A4B9C  _scene_11                          scene_11
     000A4BD7  _scene_12_init                     scene_12_init
     000A4BF1  _scene_12_p_hit1                   scene_12_p_hit1
     000A4C3A  ___func_scene_12_projectiles       scene_12_projectiles
     000A4C3A  _scene_12_projectiles              scene_12_projectiles
     000A4C7F  ___func_scene_12_sprites           scene_12_sprites
     000A4C7F  _scene_12_sprites                  scene_12_sprites
     000A4C9A  ___func_scene_12_triggers          scene_12_triggers
     000A4C9A  _scene_12_triggers                 scene_12_triggers
     000A4CA2  ___func_scene_12                   scene_12
     000A4CA2  _scene_12                          scene_12
     000A4CDD  _scene_13_init                     scene_13_init
     000A4D20  _scene_13_p_hit1                   scene_13_p_hit1
     000A4D69  ___func_scene_13_projectiles       scene_13_projectiles
     000A4D69  _scene_13_projectiles              scene_13_projectiles
     000A4D97  ___func_scene_13_sprites           scene_13_sprites
     000A4D97  _scene_13_sprites                  scene_13_sprites
     000A4DA6  ___func_scene_13_triggers          scene_13_triggers
     000A4DA6  _scene_13_triggers                 scene_13_triggers
     000A4DB6  ___func_scene_13                   scene_13
     000A4DB6  _scene_13                          scene_13
     000A4DF1  _scene_14_init                     scene_14_init
     000A4E4E  _scene_14_p_hit1                   scene_14_p_hit1
     000A4E97  ___func_scene_14_projectiles       scene_14_projectiles
     000A4E97  _scene_14_projectiles              scene_14_projectiles
     000A4EC5  ___func_scene_14_sprites           scene_14_sprites
     000A4EC5  _scene_14_sprites                  scene_14_sprites
     000A4ED4  ___func_scene_14_triggers          scene_14_triggers
     000A4ED4  _scene_14_triggers                 scene_14_triggers
     000A4EDC  ___func_scene_14                   scene_14
     000A4EDC  _scene_14                          scene_14
     000A4F17  _scene_15_init                     scene_15_init
     000A4F31  _scene_15_p_hit1                   scene_15_p_hit1
     000A4F7A  ___func_scene_15_projectiles       scene_15_projectiles
     000A4F7A  _scene_15_projectiles              scene_15_projectiles
     000A4FA8  ___func_scene_15_sprites           scene_15_sprites
     000A4FA8  _scene_15_sprites                  scene_15_sprites
     000A4FB7  ___func_scene_15_triggers          scene_15_triggers
     000A4FB7  _scene_15_triggers                 scene_15_triggers
     000A4FD7  ___func_scene_15                   scene_15
     000A4FD7  _scene_15                          scene_15
     000A5012  _scene_16_init                     scene_16_init
ASxxxx Linker V03.00/V05.40 + sdld,  page 53.
Hexadecimal  [32-Bits]

Area                                    Addr        Size        Decimal Bytes (Attributes)
--------------------------------        ----        ----        ------- ----- ------------
_CODE_10                            000A4000    0000277B =       10107. bytes (REL,CON)

      Value  Global                              Global Defined In Module
      -----  --------------------------------   ------------------------
     000A502C  _scene_16_p_hit1                   scene_16_p_hit1
     000A5075  ___func_scene_16_projectiles       scene_16_projectiles
     000A5075  _scene_16_projectiles              scene_16_projectiles
     000A50A3  ___func_scene_16_sprites           scene_16_sprites
     000A50A3  _scene_16_sprites                  scene_16_sprites
     000A50B2  ___func_scene_16_triggers          scene_16_triggers
     000A50B2  _scene_16_triggers                 scene_16_triggers
     000A50D2  ___func_scene_16                   scene_16
     000A50D2  _scene_16                          scene_16
     000A510D  _scene_17_init                     scene_17_init
     000A5127  ___func_scene_17_projectiles       scene_17_projectiles
     000A5127  _scene_17_projectiles              scene_17_projectiles
     000A5155  ___func_scene_17_sprites           scene_17_sprites
     000A5155  _scene_17_sprites                  scene_17_sprites
     000A5161  ___func_scene_17_triggers          scene_17_triggers
     000A5161  _scene_17_triggers                 scene_17_triggers
     000A5171  ___func_scene_17                   scene_17
     000A5171  _scene_17                          scene_17
     000A51AC  _scene_18_p_hit1                   scene_18_p_hit1
     000A51F5  ___func_scene_18_projectiles       scene_18_projectiles
     000A51F5  _scene_18_projectiles              scene_18_projectiles
     000A5223  ___func_scene_18_sprites           scene_18_sprites
     000A5223  _scene_18_sprites                  scene_18_sprites
     000A5232  ___func_scene_18_triggers          scene_18_triggers
     000A5232  _scene_18_triggers                 scene_18_triggers
     000A5252  ___func_scene_18                   scene_18
     000A5252  _scene_18                          scene_18
     000A528D  _scene_19_p_hit1                   scene_19_p_hit1
     000A52D6  ___func_scene_19_projectiles       scene_19_projectiles
     000A52D6  _scene_19_projectiles              scene_19_projectiles
     000A5304  ___func_scene_19_sprites           scene_19_sprites
     000A5304  _scene_19_sprites                  scene_19_sprites
     000A5310  ___func_scene_19_triggers          scene_19_triggers
     000A5310  _scene_19_triggers                 scene_19_triggers
     000A5318  ___func_scene_19                   scene_19
     000A5318  _scene_19                          scene_19
     000A5353  _scene_2_init                      scene_2_init
     000A536D  ___func_scene_2_projectiles        scene_2_projectiles
     000A536D  _scene_2_projectiles               scene_2_projectiles
     000A539B  ___func_scene_2_sprites            scene_2_sprites
     000A539B  _scene_2_sprites                   scene_2_sprites
     000A53A7  ___func_scene_2_triggers           scene_2_triggers
     000A53A7  _scene_2_triggers                  scene_2_triggers
     000A53AF  ___func_scene_2                    scene_2
     000A53AF  _scene_2                           scene_2
     000A53EA  _scene_20_init                     scene_20_init
     000A5404  ___func_scene_20_projectiles       scene_20_projectiles
     000A5404  _scene_20_projectiles              scene_20_projectiles
     000A5432  ___func_scene_20_sprites           scene_20_sprites
     000A5432  _scene_20_sprites                  scene_20_sprites
     000A543E  ___func_scene_20_triggers          scene_20_triggers
ASxxxx Linker V03.00/V05.40 + sdld,  page 54.
Hexadecimal  [32-Bits]

Area                                    Addr        Size        Decimal Bytes (Attributes)
--------------------------------        ----        ----        ------- ----- ------------
_CODE_10                            000A4000    0000277B =       10107. bytes (REL,CON)

      Value  Global                              Global Defined In Module
      -----  --------------------------------   ------------------------
     000A543E  _scene_20_triggers                 scene_20_triggers
     000A544E  ___func_scene_20                   scene_20
     000A544E  _scene_20                          scene_20
     000A5489  _scene_21_init                     scene_21_init
     000A54A3  ___func_scene_21_projectiles       scene_21_projectiles
     000A54A3  _scene_21_projectiles              scene_21_projectiles
     000A54D1  ___func_scene_21_sprites           scene_21_sprites
     000A54D1  _scene_21_sprites                  scene_21_sprites
     000A54DD  ___func_scene_21_triggers          scene_21_triggers
     000A54DD  _scene_21_triggers                 scene_21_triggers
     000A54E5  ___func_scene_21                   scene_21
     000A54E5  _scene_21                          scene_21
     000A5520  ___func_scene_22_actors            scene_22_actors
     000A5520  _scene_22_actors                   scene_22_actors
     000A5588  _scene_22_init                     scene_22_init
     000A55A2  ___func_scene_22_projectiles       scene_22_projectiles
     000A55A2  _scene_22_projectiles              scene_22_projectiles
     000A55D0  ___func_scene_22_sprites           scene_22_sprites
     000A55D0  _scene_22_sprites                  scene_22_sprites
     000A55DC  ___func_scene_22_triggers          scene_22_triggers
     000A55DC  _scene_22_triggers                 scene_22_triggers
     000A55EC  ___func_scene_22                   scene_22
     000A55EC  _scene_22                          scene_22
     000A5627  _scene_3_init                      scene_3_init
     000A5659  ___func_scene_3                    scene_3
     000A5659  _scene_3                           scene_3
     000A5694  ___func_scene_7_actors             scene_7_actors
     000A5694  _scene_7_actors                    scene_7_actors
     000A56FC  _scene_7_init                      scene_7_init
     000A5753  ___func_scene_7_projectiles        scene_7_projectiles
     000A5753  _scene_7_projectiles               scene_7_projectiles
     000A5781  ___func_scene_7_sprites            scene_7_sprites
     000A5781  _scene_7_sprites                   scene_7_sprites
     000A578D  ___func_scene_7_triggers           scene_7_triggers
     000A578D  _scene_7_triggers                  scene_7_triggers
     000A5795  ___func_scene_7                    scene_7
     000A5795  _scene_7                           scene_7
     000A57D0  _scene_8_init                      scene_8_init
     000A57EA  _scene_8_p_hit1                    scene_8_p_hit1
     000A5833  ___func_scene_8_projectiles        scene_8_projectiles
     000A5833  _scene_8_projectiles               scene_8_projectiles
     000A5861  ___func_scene_8_sprites            scene_8_sprites
     000A5861  _scene_8_sprites                   scene_8_sprites
     000A586D  ___func_scene_8_triggers           scene_8_triggers
     000A586D  _scene_8_triggers                  scene_8_triggers
     000A5885  ___func_scene_8                    scene_8
     000A5885  _scene_8                           scene_8
     000A58C0  _scene_logo_init                   scene_logo_init
     000A5920  ___func_scene_logo_projectiles     scene_logo_projectiles
     000A5920  _scene_logo_projectiles            scene_logo_projectiles
     000A594E  ___func_scene_logo                 scene_logo
ASxxxx Linker V03.00/V05.40 + sdld,  page 55.
Hexadecimal  [32-Bits]

Area                                    Addr        Size        Decimal Bytes (Attributes)
--------------------------------        ----        ----        ------- ----- ------------
_CODE_10                            000A4000    0000277B =       10107. bytes (REL,CON)

      Value  Global                              Global Defined In Module
      -----  --------------------------------   ------------------------
     000A594E  _scene_logo                        scene_logo
     000A5989  ___func_scene_title_screen         scene_title_screen
     000A5989  _scene_title_screen                scene_title_screen
     000A59C4  _script_14                         script_14
     000A5A16  _script_engine_init                
     000A5A5E  _script_input_0                    script_input_0
     000A5AAD  _script_input_1                    script_input_1
     000A5AFC  ___func_sound_legacy_0             sound_legacy_0
     000A5AFC  _sound_legacy_0                    sound_legacy_0
     000A5B0A  ___func_sprite_bullet_tileset      sprite_bullet_tileset
     000A5B0A  _sprite_bullet_tileset             sprite_bullet_tileset
     000A5B2C  ___func_sprite_bullet              sprite_bullet
     000A5B2C  _sprite_bullet_metasprite_0        sprite_bullet
     000A5B38  _sprite_bullet_metasprites         sprite_bullet
     000A5B3A  _sprite_bullet_animations          sprite_bullet
     000A5B4A  _sprite_bullet_animations_lookup   sprite_bullet
     000A5B4C  _sprite_bullet                     sprite_bullet
     000A5B5F  ___func_sprite_dartwallsprite_ti   sprite_dartwallsprite_tilese
     000A5B5F  _sprite_dartwallsprite_tileset     sprite_dartwallsprite_tilese
     000A5B81  ___func_sprite_dartwallsprite      sprite_dartwallsprite
     000A5B81  _sprite_dartwallsprite_metasprit   sprite_dartwallsprite
     000A5B8D  _sprite_dartwallsprite_metasprit   sprite_dartwallsprite
     000A5B8F  _sprite_dartwallsprite_animation   sprite_dartwallsprite
     000A5B9F  _sprite_dartwallsprite_animation   sprite_dartwallsprite
     000A5BA1  _sprite_dartwallsprite             sprite_dartwallsprite
     000A5BB4  ___func_sprite_flashcard_tileset   sprite_flashcard_tileset
     000A5BB4  _sprite_flashcard_tileset          sprite_flashcard_tileset
     000A5BF6  ___func_sprite_flashcard           sprite_flashcard
     000A5BF6  _sprite_flashcard_metasprite_0     sprite_flashcard
     000A5C02  _sprite_flashcard_metasprites      sprite_flashcard
     000A5C04  _sprite_flashcard_animations       sprite_flashcard
     000A5C14  _sprite_flashcard_animations_loo   sprite_flashcard
     000A5C16  _sprite_flashcard                  sprite_flashcard
     000A5C29  ___func_sprite_fritzfull           sprite_fritzfull
     000A5C29  _sprite_fritzfull_metasprite_0     sprite_fritzfull
     000A5C35  _sprite_fritzfull_metasprite_1     sprite_fritzfull
     000A5C41  _sprite_fritzfull_metasprite_2     sprite_fritzfull
     000A5C4D  _sprite_fritzfull_metasprite_3     sprite_fritzfull
     000A5C59  _sprite_fritzfull_metasprites      sprite_fritzfull
     000A5C61  _sprite_fritzfull_animations       sprite_fritzfull
     000A5C71  _sprite_fritzfull_animations_loo   sprite_fritzfull
     000A5C73  _sprite_fritzfull                  sprite_fritzfull
     000A5C86  ___func_sprite_gardenbook_tilese   sprite_gardenbook_tileset
     000A5C86  _sprite_gardenbook_tileset         sprite_gardenbook_tileset
     000A5CC8  ___func_sprite_gardenbook          sprite_gardenbook
     000A5CC8  _sprite_gardenbook_metasprite_0    sprite_gardenbook
     000A5CD4  _sprite_gardenbook_metasprites     sprite_gardenbook
     000A5CD6  _sprite_gardenbook_animations      sprite_gardenbook
     000A5CE6  _sprite_gardenbook_animations_lo   sprite_gardenbook
     000A5CE8  _sprite_gardenbook                 sprite_gardenbook
     000A5CFB  ___func_sprite_healthbar           sprite_healthbar
ASxxxx Linker V03.00/V05.40 + sdld,  page 56.
Hexadecimal  [32-Bits]

Area                                    Addr        Size        Decimal Bytes (Attributes)
--------------------------------        ----        ----        ------- ----- ------------
_CODE_10                            000A4000    0000277B =       10107. bytes (REL,CON)

      Value  Global                              Global Defined In Module
      -----  --------------------------------   ------------------------
     000A5CFB  _sprite_healthbar_metasprite_0     sprite_healthbar
     000A5D07  _sprite_healthbar_metasprite_1     sprite_healthbar
     000A5D13  _sprite_healthbar_metasprite_2     sprite_healthbar
     000A5D1F  _sprite_healthbar_metasprite_3     sprite_healthbar
     000A5D2B  _sprite_healthbar_metasprites      sprite_healthbar
     000A5D33  _sprite_healthbar_animations       sprite_healthbar
     000A5D43  _sprite_healthbar_animations_loo   sprite_healthbar
     000A5D45  _sprite_healthbar                  sprite_healthbar
     000A5D58  ___func_sprite_kopturfull          sprite_kopturfull
     000A5D58  _sprite_kopturfull_metasprite_0    sprite_kopturfull
     000A5D64  _sprite_kopturfull_metasprite_1    sprite_kopturfull
     000A5D70  _sprite_kopturfull_metasprite_2    sprite_kopturfull
     000A5D7C  _sprite_kopturfull_metasprite_3    sprite_kopturfull
     000A5D88  _sprite_kopturfull_metasprites     sprite_kopturfull
     000A5D90  _sprite_kopturfull_animations      sprite_kopturfull
     000A5DA0  _sprite_kopturfull_animations_lo   sprite_kopturfull
     000A5DA2  _sprite_kopturfull                 sprite_kopturfull
     000A5DB5  ___func_sprite_levelbook_tileset   sprite_levelbook_tileset
     000A5DB5  _sprite_levelbook_tileset          sprite_levelbook_tileset
     000A5DF7  ___func_sprite_levelbook           sprite_levelbook
     000A5DF7  _sprite_levelbook_metasprite_0     sprite_levelbook
     000A5E03  _sprite_levelbook_metasprites      sprite_levelbook
     000A5E05  _sprite_levelbook_animations       sprite_levelbook
     000A5E15  _sprite_levelbook_animations_loo   sprite_levelbook
     000A5E17  _sprite_levelbook                  sprite_levelbook
     000A5E2A  ___func_sprite_locked_door_tiles   sprite_locked_door_tileset
     000A5E2A  _sprite_locked_door_tileset        sprite_locked_door_tileset
     000A5E4C  ___func_sprite_locked_door         sprite_locked_door
     000A5E4C  _sprite_locked_door_metasprite_0   sprite_locked_door
     000A5E58  _sprite_locked_door_metasprites    sprite_locked_door
     000A5E5C  _sprite_locked_door_animations     sprite_locked_door
     000A5E6C  _sprite_locked_door_animations_l   sprite_locked_door
     000A5E6E  _sprite_locked_door                sprite_locked_door
     000A5E81  ___func_sprite_machine             sprite_machine
     000A5E81  _sprite_machine_metasprite_0       sprite_machine
     000A5E8D  _sprite_machine_metasprite_1       sprite_machine
     000A5E99  _sprite_machine_metasprites        sprite_machine
     000A5E9D  _sprite_machine_animations         sprite_machine
     000A5EAD  _sprite_machine_animations_looku   sprite_machine
     000A5EAF  _sprite_machine                    sprite_machine
     000A5EC2  ___func_sprite_rosies_tileset      sprite_rosies_tileset
     000A5EC2  _sprite_rosies_tileset             sprite_rosies_tileset
     000A5F04  ___func_sprite_rosies              sprite_rosies
     000A5F04  _sprite_rosies_metasprite_0        sprite_rosies
     000A5F10  _sprite_rosies_metasprites         sprite_rosies
     000A5F12  _sprite_rosies_animations          sprite_rosies
     000A5F22  _sprite_rosies_animations_lookup   sprite_rosies
     000A5F24  _sprite_rosies                     sprite_rosies
     000A5F37  ___func_sprite_shield_sprite_16x   sprite_shield_sprite_16x16_t
     000A5F37  _sprite_shield_sprite_16x16_tile   sprite_shield_sprite_16x16_t
     000A5F79  ___func_sprite_shield_sprite_16x   sprite_shield_sprite_16x16
ASxxxx Linker V03.00/V05.40 + sdld,  page 57.
Hexadecimal  [32-Bits]

Area                                    Addr        Size        Decimal Bytes (Attributes)
--------------------------------        ----        ----        ------- ----- ------------
_CODE_10                            000A4000    0000277B =       10107. bytes (REL,CON)

      Value  Global                              Global Defined In Module
      -----  --------------------------------   ------------------------
     000A5F79  _sprite_shield_sprite_16x16_meta   sprite_shield_sprite_16x16
     000A5F85  _sprite_shield_sprite_16x16_meta   sprite_shield_sprite_16x16
     000A5F87  _sprite_shield_sprite_16x16_anim   sprite_shield_sprite_16x16
     000A5F97  _sprite_shield_sprite_16x16_anim   sprite_shield_sprite_16x16
     000A5F99  _sprite_shield_sprite_16x16        sprite_shield_sprite_16x16
     000A5FAC  ___func_sprite_signpost_tileset    sprite_signpost_tileset
     000A5FAC  _sprite_signpost_tileset           sprite_signpost_tileset
     000A5FEE  ___func_sprite_signpost            sprite_signpost
     000A5FEE  _sprite_signpost_metasprite_0      sprite_signpost
     000A5FFA  _sprite_signpost_metasprites       sprite_signpost
     000A5FFC  _sprite_signpost_animations        sprite_signpost
     000A600C  _sprite_signpost_animations_look   sprite_signpost
     000A600E  _sprite_signpost                   sprite_signpost
     000A6021  ___func_sprite_squirrelfull        sprite_squirrelfull
     000A6021  _sprite_squirrelfull_metasprite_   sprite_squirrelfull
     000A602D  _sprite_squirrelfull_metasprite_   sprite_squirrelfull
     000A6039  _sprite_squirrelfull_metasprite_   sprite_squirrelfull
     000A6045  _sprite_squirrelfull_metasprite_   sprite_squirrelfull
     000A6051  _sprite_squirrelfull_metasprites   sprite_squirrelfull
     000A6059  _sprite_squirrelfull_animations    sprite_squirrelfull
     000A6069  _sprite_squirrelfull_animations_   sprite_squirrelfull
     000A606B  _sprite_squirrelfull               sprite_squirrelfull
     000A607E  ___func_sprite_sword               sprite_sword
     000A607E  _sprite_sword_metasprite_0         sprite_sword
     000A608A  _sprite_sword_metasprite_1         sprite_sword
     000A6096  _sprite_sword_metasprite_2         sprite_sword
     000A60A2  _sprite_sword_metasprite_3         sprite_sword
     000A60AE  _sprite_sword_metasprites          sprite_sword
     000A60B6  _sprite_sword_animations           sprite_sword
     000A60C6  _sprite_sword_animations_lookup    sprite_sword
     000A60C8  _sprite_sword                      sprite_sword
     000A60DB  ___func_sprite_swordsprite_16x16   sprite_swordsprite_16x16_til
     000A60DB  _sprite_swordsprite_16x16_tilese   sprite_swordsprite_16x16_til
     000A611D  ___func_sprite_swordsprite_16x16   sprite_swordsprite_16x16
     000A611D  _sprite_swordsprite_16x16_metasp   sprite_swordsprite_16x16
     000A6129  _sprite_swordsprite_16x16_metasp   sprite_swordsprite_16x16
     000A612B  _sprite_swordsprite_16x16_animat   sprite_swordsprite_16x16
     000A613B  _sprite_swordsprite_16x16_animat   sprite_swordsprite_16x16
     000A613D  _sprite_swordsprite_16x16          sprite_swordsprite_16x16
     000A6150  ___func_sprite_tottenfull          sprite_tottenfull
     000A6150  _sprite_tottenfull_metasprite_0    sprite_tottenfull
     000A615C  _sprite_tottenfull_metasprite_1    sprite_tottenfull
     000A6168  _sprite_tottenfull_metasprite_2    sprite_tottenfull
     000A6174  _sprite_tottenfull_metasprite_3    sprite_tottenfull
     000A6180  _sprite_tottenfull_metasprites     sprite_tottenfull
     000A6188  _sprite_tottenfull_animations      sprite_tottenfull
     000A6198  _sprite_tottenfull_animations_lo   sprite_tottenfull
     000A619A  _sprite_tottenfull                 sprite_tottenfull
     000A61AD  _spritesheet_none_metasprite       spritesheet_none
     000A61B1  _spritesheet_none_metasprites      spritesheet_none
     000A61B3  _spritesheet_none                  spritesheet_none
ASxxxx Linker V03.00/V05.40 + sdld,  page 58.
Hexadecimal  [32-Bits]

Area                                    Addr        Size        Decimal Bytes (Attributes)
--------------------------------        ----        ----        ------- ----- ------------
_CODE_10                            000A4000    0000277B =       10107. bytes (REL,CON)

      Value  Global                              Global Defined In Module
      -----  --------------------------------   ------------------------
     000A61C6  _trigger_0_interact                trigger_0_interact
     000A61EC  _trigger_1_interact                trigger_1_interact
     000A6212  _trigger_10_interact               trigger_10_interact
     000A6238  _trigger_11_interact               trigger_11_interact
     000A625E  _trigger_12_interact               trigger_12_interact
     000A6284  _trigger_13_interact               trigger_13_interact
     000A62AA  _trigger_14_interact               trigger_14_interact
     000A62D0  _trigger_15_interact               trigger_15_interact
     000A62F6  _trigger_16_interact               trigger_16_interact
     000A631C  _trigger_17_interact               trigger_17_interact
     000A6342  _trigger_18_interact               trigger_18_interact
     000A6368  _trigger_19_interact               trigger_19_interact
     000A638E  _trigger_2_interact                trigger_2_interact
     000A63B4  _trigger_20_interact               trigger_20_interact
     000A63DA  _trigger_21_interact               trigger_21_interact
     000A6400  _trigger_22_interact               trigger_22_interact
     000A6426  _trigger_23_interact               trigger_23_interact
     000A644C  _trigger_24_interact               trigger_24_interact
     000A6472  _trigger_25_interact               trigger_25_interact
     000A6498  _trigger_26_interact               trigger_26_interact
     000A64BE  _trigger_27_interact               trigger_27_interact
     000A64E4  _trigger_28_interact               trigger_28_interact
     000A650A  _trigger_29_interact               trigger_29_interact
     000A6530  _trigger_3_interact                trigger_3_interact
     000A6556  _trigger_31_interact               trigger_31_interact
     000A657C  _trigger_32_interact               trigger_32_interact
     000A65A2  _trigger_33_interact               trigger_33_interact
     000A65C8  _trigger_34_interact               trigger_34_interact
     000A65EE  _trigger_35_interact               trigger_35_interact
     000A6614  _trigger_4_interact                trigger_4_interact
     000A663A  _trigger_42_interact               trigger_42_interact
     000A6660  _trigger_43_interact               trigger_43_interact
     000A6686  _trigger_44_interact               trigger_44_interact
     000A66AC  _trigger_5_interact                trigger_5_interact
     000A66D2  _trigger_6_interact                trigger_6_interact
     000A66F8  _trigger_7_interact                trigger_7_interact
     000A671E  _trigger_8_interact                trigger_8_interact
     000A6744  _trigger_9_interact                trigger_9_interact
     000A676A  _logo_init                         logo
     000A677A  _logo_update                       logo
ASxxxx Linker V03.00/V05.40 + sdld,  page 59.
Hexadecimal  [32-Bits]

Area                                    Addr        Size        Decimal Bytes (Attributes)
--------------------------------        ----        ----        ------- ----- ------------
_CODE_6                             00064000    00003FFC =       16380. bytes (REL,CON)

      Value  Global                              Global Defined In Module
      -----  --------------------------------   ------------------------
     00064000  _core_reset                        core
     00064075  _process_VM                        core
     000642F7  _core_run                          core
     000643D3  _data_init                         load_save
     0006441E  _save_points                       load_save
     0006447E  _data_slot_address                 load_save
     000644F6  _data_save                         load_save
     000645B7  _data_load                         load_save
     000646CB  _data_clear                        load_save
     000646F8  _data_peek                         load_save
     00064799  _projectiles_init                  projectiles
     000647C8  _projectile_launch                 projectiles
     00064BDF  _trigger_reset                     trigger
     00064BEF  _trigger_interact                  trigger
     00064C2E  _trigger_activate_at               trigger
     00064C79  _trigger_at_intersection           trigger
     00064DA0  _trigger_activate_at_intersectio   trigger
     00064EE1  _trigger_at_tile                   trigger
     00064F72  ___func_bg_chrislevel2_tilemap_a   bg_chrislevel2_tilemap_attr
     00064F72  _bg_chrislevel2_tilemap_attr       bg_chrislevel2_tilemap_attr
     0006538C  ___func_bg_chrislevel2_tilemap     bg_chrislevel2_tilemap
     0006538C  _bg_chrislevel2_tilemap            bg_chrislevel2_tilemap
     000657A6  ___func_bg_chrislivingroom_tiles   bg_chrislivingroom_tileset
     000657A6  _bg_chrislivingroom_tileset        bg_chrislivingroom_tileset
     00065B88  ___func_bg_computerlablevel2_til   bg_computerlablevel2_tilemap
     00065B88  _bg_computerlablevel2_tilemap_at   bg_computerlablevel2_tilemap
     00065F0C  ___func_bg_computerlablevel2_til   bg_computerlablevel2_tilemap
     00065F0C  _bg_computerlablevel2_tilemap      bg_computerlablevel2_tilemap
     00066290  ___func_bg_computerlablevel2_til   bg_computerlablevel2_tileset
     00066290  _bg_computerlablevel2_tileset      bg_computerlablevel2_tileset
     00066702  ___func_bg_computerlablevel3_til   bg_computerlablevel3_tilemap
     00066702  _bg_computerlablevel3_tilemap      bg_computerlablevel3_tilemap
     00066A86  ___func_bg_dungeonlevel1_tilemap   bg_dungeonlevel1_tilemap
     00066A86  _bg_dungeonlevel1_tilemap          bg_dungeonlevel1_tilemap
     00066F0A  ___func_bg_dungeonlevel2_tileset   bg_dungeonlevel2_tileset
     00066F0A  _bg_dungeonlevel2_tileset          bg_dungeonlevel2_tileset
     0006732C  ___func_bg_dungeonlevel3_tileset   bg_dungeonlevel3_tileset
     0006732C  _bg_dungeonlevel3_tileset          bg_dungeonlevel3_tileset
     0006775E  ___func_scene_11_collisions        scene_11_collisions
     0006775E  _scene_11_collisions               scene_11_collisions
     00067BE2  ___func_scene_16_collisions        scene_16_collisions
     00067BE2  _scene_16_collisions               scene_16_collisions
ASxxxx Linker V03.00/V05.40 + sdld,  page 60.
Hexadecimal  [32-Bits]

Area                                    Addr        Size        Decimal Bytes (Attributes)
--------------------------------        ----        ----        ------- ----- ------------
_CRASH_HEADER0                      00000000    00000005 =           5. bytes (ABS,CON)

      Value  Global                              Global Defined In Module
      -----  --------------------------------   ------------------------
ASxxxx Linker V03.00/V05.40 + sdld,  page 61.
Hexadecimal  [32-Bits]

Area                                    Addr        Size        Decimal Bytes (Attributes)
--------------------------------        ----        ----        ------- ----- ------------
_CRASH_HEADER1                      00000000    00000004 =           4. bytes (ABS,CON)

      Value  Global                              Global Defined In Module
      -----  --------------------------------   ------------------------
ASxxxx Linker V03.00/V05.40 + sdld,  page 62.
Hexadecimal  [32-Bits]

Area                                    Addr        Size        Decimal Bytes (Attributes)
--------------------------------        ----        ----        ------- ----- ------------
_CODE_7                             00074000    00003FFB =       16379. bytes (REL,CON)

      Value  Global                              Global Defined In Module
      -----  --------------------------------   ------------------------
     00074000  ___HandleCrash_banked              
     00074368  _CGBFadeToWhiteStep                fade_manager
     000743A1  _CGBFadeToBlackStep                fade_manager
     000743DC  _ApplyPaletteChangeColor           fade_manager
     00074419  _fade_speeds                       fade_manager
     00074420  _DMGFadeToWhiteStep                fade_manager
     00074441  _DMGFadeToBlackStep                fade_manager
     00074464  _ApplyPaletteChangeDMG             fade_manager
     000744BA  _fade_init                         fade_manager
     000744DC  _fade_in                           fade_manager
     00074506  _fade_out                          fade_manager
     0007452F  _fade_update                       fade_manager
     00074584  _fade_applypalettechange           fade_manager
     00074598  _fade_setspeed                     fade_manager
     000745A8  _fade_in_modal                     fade_manager
     000745C2  _fade_out_modal                    fade_manager
     000745DC  _printer_send_receive              gbprinter
     00074612  _printer_send_byte                 gbprinter
     00074625  _printer_send_command              gbprinter
     00074648  _printer_print_tile                gbprinter
     000746D9  _printer_wait                      gbprinter
     0007470B  _gbprinter_detect                  gbprinter
     00074725  _gbprinter_print_overlay           gbprinter
     000748F2  _atan2                             math_atan2
     00074A91  _atan2_table                       math_atan2
     00074BF9  ___func_VM_CAMERA                  vm_camera
     00074BF9  _vm_camera_move_to                 vm_camera
     00074D4C  _vm_camera_set_pos                 vm_camera
     00074D93  _camera_shake_frames               vm_camera
     00074E8B  ___func_VM_SIO                     vm_sio
     00074E8B  _vm_sio_set_mode                   vm_sio
     00074E9D  _vm_sio_exchange                   vm_sio
     0007517F  _actor_8_interact                  actor_8_interact
     00075451  ___func_bg_chrisbedroom_tileset    bg_chrisbedroom_tileset
     00075451  _bg_chrisbedroom_tileset           bg_chrisbedroom_tileset
     00075703  ___func_bg_chrislevel4_tileset     bg_chrislevel4_tileset
     00075703  _bg_chrislevel4_tileset            bg_chrislevel4_tileset
     00075975  ___func_bg_computerlablevel1_til   bg_computerlablevel1_tilemap
     00075975  _bg_computerlablevel1_tilemap_at   bg_computerlablevel1_tilemap
     00075BE6  ___func_bg_computerlablevel1_til   bg_computerlablevel1_tilemap
     00075BE6  _bg_computerlablevel1_tilemap      bg_computerlablevel1_tilemap
     00075E57  ___func_bg_computerlablevel1_til   bg_computerlablevel1_tileset
     00075E57  _bg_computerlablevel1_tileset      bg_computerlablevel1_tileset
     00076149  ___func_bg_computerlablevel4_til   bg_computerlablevel4_tileset
     00076149  _bg_computerlablevel4_tileset      bg_computerlablevel4_tileset
     000763EB  ___func_bg_dungeonlevel3_tilemap   bg_dungeonlevel3_tilemap
     000763EB  _bg_dungeonlevel3_tilemap          bg_dungeonlevel3_tilemap
     0007665C  ___func_bg_hubarea_tilemap_attr    bg_hubarea_tilemap_attr
     0007665C  _bg_hubarea_tilemap_attr           bg_hubarea_tilemap_attr
     000769C7  ___func_bg_hubarea_tilemap         bg_hubarea_tilemap
ASxxxx Linker V03.00/V05.40 + sdld,  page 63.
Hexadecimal  [32-Bits]

Area                                    Addr        Size        Decimal Bytes (Attributes)
--------------------------------        ----        ----        ------- ----- ------------
_CODE_7                             00074000    00003FFB =       16379. bytes (REL,CON)

      Value  Global                              Global Defined In Module
      -----  --------------------------------   ------------------------
     000769C7  _bg_hubarea_tilemap                bg_hubarea_tilemap
     00076D32  ___func_scene_0_collisions         scene_0_collisions
     00076D32  _scene_0_collisions                scene_0_collisions
     000770B6  ___func_scene_10_collisions        scene_10_collisions
     000770B6  _scene_10_collisions               scene_10_collisions
     0007743A  ___func_scene_13_collisions        scene_13_collisions
     0007743A  _scene_13_collisions               scene_13_collisions
     000776AB  ___func_scene_18_collisions        scene_18_collisions
     000776AB  _scene_18_collisions               scene_18_collisions
     00077A16  ___func_scene_8_collisions         scene_8_collisions
     00077A16  _scene_8_collisions                scene_8_collisions
     00077C87  _pointnclick_init                  pointnclick
     00077CC0  _pointnclick_update                pointnclick
ASxxxx Linker V03.00/V05.40 + sdld,  page 64.
Hexadecimal  [32-Bits]

Area                                    Addr        Size        Decimal Bytes (Attributes)
--------------------------------        ----        ----        ------- ----- ------------
_CRASH_SCRATCH2                     00000000    000001CB =         459. bytes (ABS,CON)

      Value  Global                              Global Defined In Module
      -----  --------------------------------   ------------------------
ASxxxx Linker V03.00/V05.40 + sdld,  page 65.
Hexadecimal  [32-Bits]

Area                                    Addr        Size        Decimal Bytes (Attributes)
--------------------------------        ----        ----        ------- ----- ------------
_CODE_3                             00034000    00004000 =       16384. bytes (REL,CON)

      Value  Global                              Global Defined In Module
      -----  --------------------------------   ------------------------
     00034000  _load_init                         data_manager
     00034013  _spritesheet_none_far              data_manager
     00034016  _load_bkg_tileset                  data_manager
     000340F3  _load_background                   data_manager
     000341B9  _load_sprite                       data_manager
     0003428F  _load_bounds                       data_manager
     000342AC  _do_load_palette                   data_manager
     00034331  _load_scene                        data_manager
     00034996  _load_player                       data_manager
     000349DF  _load_emote                        data_manager
     000349F8  ___func_bg_chrislevel1_tilemap_a   bg_chrislevel1_tilemap_attr
     000349F8  _bg_chrislevel1_tilemap_attr       bg_chrislevel1_tilemap_attr
     000353BC  ___func_bg_chrislevel1_tilemap     bg_chrislevel1_tilemap
     000353BC  _bg_chrislevel1_tilemap            bg_chrislevel1_tilemap
     00035D80  ___func_bg_rosiesbathroom2_tiles   bg_rosiesbathroom2_tileset
     00035D80  _bg_rosiesbathroom2_tileset        bg_rosiesbathroom2_tileset
     000362B2  ___func_bg_sleepy_fox_tileset      bg_sleepy_fox_tileset
     000362B2  _bg_sleepy_fox_tileset             bg_sleepy_fox_tileset
     0003761B  _song_rulz_intro_0_Data            song_rulz_intro_0_Data
     00037630  ___func_scene_1_sprites            scene_1_sprites
     00037630  _scene_1_sprites                   scene_1_sprites
     0003763C  ___func_scene_15_collisions        scene_15_collisions
     0003763C  _scene_15_collisions               scene_15_collisions

ASxxxx Linker V03.00/V05.40 + sdld,  page 66.
Hexadecimal  [32-Bits]

Area                                    Addr        Size        Decimal Bytes (Attributes)
--------------------------------        ----        ----        ------- ----- ------------
_CODE_9                             00094000    00004000 =       16384. bytes (REL,CON)

      Value  Global                              Global Defined In Module
      -----  --------------------------------   ------------------------
     00094000  _events_init                       events
     00094040  _timers_init                       events
     000940E8  _save_sram_banks                   
     00094170  _erase_flash                       
     00094186  _restore_sram_bank                 flasher
     000941BC  _restore_sram                      flasher
     000941D2  _save_sram                         flasher
     000941FE  _music_init_driver                 music_manager
     0009425A  _music_init_events                 music_manager
     00094296  _music_events_poll                 music_manager
     000942BE  _music_pause                       music_manager
     000942E0  ___func_VM_GBPRINTER               vm_gbprinter
     000942E0  _vm_print_detect                   vm_gbprinter
     0009432F  _vm_print_overlay                  vm_gbprinter
     00094384  ___func_VM_LOAD_SAVE               vm_load_save
     00094384  _vm_save_clear                     vm_load_save
     00094393  _vm_save_peek                      vm_load_save
     00094415  ___func_VM_MATH                    vm_math
     00094415  _vm_sin_scale                      vm_math
     000944B1  _vm_cos_scale                      vm_math
     0009454F  ___func_VM_MUSIC                   vm_music
     0009454F  _vm_music_play                     vm_music
     0009459C  _vm_music_stop                     vm_music
     000945BE  _vm_music_mute                     vm_music
     000945FC  _vm_music_routine                  vm_music
     00094623  _vm_music_setpos                   vm_music
     0009462A  _vm_sound_mastervol                vm_music
     00094630  _vm_sfx_play                       vm_music
     000946A3  ___func_VM_PROJECTILE              vm_projectiles
     000946A3  _vm_projectile_launch              vm_projectiles
     000946E4  _vm_projectile_load_type           vm_projectiles
     00094776  ___func_VM_RTC                     vm_rtc
     00094776  _vm_rtc_latch                      vm_rtc
     0009477E  _vm_rtc_get                        vm_rtc
     000947E5  _vm_rtc_set                        vm_rtc
     00094843  _vm_rtc_start                      vm_rtc
     00094866  ___func_VM_SCENE                   vm_scene
     00094866  _vm_scene_push                     vm_scene
     000948DC  _vm_scene_pop                      vm_scene
     000948EA  _vm_scene_pop_all                  vm_scene
     000948F5  _vm_scene_stack_reset              vm_scene
     000948FE  _itoa_fmt                          vm_ui_a
     00094937  .utoa_fmt                          vm_ui_a
     000949E1  _actor_0_interact                  actor_0_interact
     00094A79  _actor_1_interact                  actor_1_interact
     00094B6D  _actor_10_update                   actor_10_update
     00094C16  _actor_11_update                   actor_11_update
     00094CBF  _actor_14_interact                 actor_14_interact
     00094D8F  _actor_16_update                   actor_16_update
     00094E38  _actor_17_update                   actor_17_update
ASxxxx Linker V03.00/V05.40 + sdld,  page 67.
Hexadecimal  [32-Bits]

Area                                    Addr        Size        Decimal Bytes (Attributes)
--------------------------------        ----        ----        ------- ----- ------------
_CODE_9                             00094000    00004000 =       16384. bytes (REL,CON)

      Value  Global                              Global Defined In Module
      -----  --------------------------------   ------------------------
     00094EE1  _actor_18_update                   actor_18_update
     00094F8A  _actor_19_update                   actor_19_update
     00095033  _actor_2_interact                  actor_2_interact
     000950F3  _actor_20_update                   actor_20_update
     0009519C  _actor_22_update                   actor_22_update
     00095245  _actor_23_update                   actor_23_update
     000952EE  _actor_25_interact                 actor_25_interact
     000953B8  _actor_26_update                   actor_26_update
     00095461  _actor_27_interact                 actor_27_interact
     00095511  _actor_28_interact                 actor_28_interact
     00095593  _actor_3_interact                  actor_3_interact
     000955DC  _actor_30_interact                 actor_30_interact
     0009569D  _actor_33_interact                 actor_33_interact
     00095720  _actor_34_interact                 actor_34_interact
     000957A3  _actor_35_interact                 actor_35_interact
     00095826  _actor_36_interact                 actor_36_interact
     000958A9  _actor_37_interact                 actor_37_interact
     0009592C  _actor_38_interact                 actor_38_interact
     000959AF  _actor_39_interact                 actor_39_interact
     00095A32  _actor_40_interact                 actor_40_interact
     00095AB5  _actor_41_interact                 actor_41_interact
     00095B38  _actor_42_interact                 actor_42_interact
     00095BBB  _actor_43_interact                 actor_43_interact
     00095C3E  _actor_44_update                   actor_44_update
     00095CE7  _actor_45_update                   actor_45_update
     00095D90  _actor_46_update                   actor_46_update
     00095E39  _actor_47_update                   actor_47_update
     00095EE2  _actor_48_update                   actor_48_update
     00095F8B  _actor_49_update                   actor_49_update
     00096034  _actor_50_update                   actor_50_update
     000960DD  _actor_54_interact                 actor_54_interact
     00096181  _actor_55_update                   actor_55_update
     0009622A  _actor_6_interact                  actor_6_interact
     00096340  _actor_7_interact                  actor_7_interact
     000963FF  _actor_9_interact                  actor_9_interact
     00096537  ___func_avatar_font_0              avatar_font_0
     000965BF  _avatar_font_0                     avatar_font_0
     000965C7  ___func_bg_dungeonlevel4_bossroo   bg_dungeonlevel4_bossroom_ti
     000965C7  _bg_dungeonlevel4_bossroom_tiles   bg_dungeonlevel4_bossroom_ti
     00096729  ___func_bg_rosiesv2_tilemap_attr   bg_rosiesv2_tilemap_attr
     00096729  _bg_rosiesv2_tilemap_attr          bg_rosiesv2_tilemap_attr
     0009680A  ___func_bg_rosiesv2_tilemap        bg_rosiesv2_tilemap
     0009680A  _bg_rosiesv2_tilemap               bg_rosiesv2_tilemap
     000968EB  ___func_frame_image                frame_image
     000968EB  _frame_image                       frame_image
     0009697B  ___func_scene_0_actors             scene_0_actors
     0009697B  _scene_0_actors                    scene_0_actors
     00096A4B  ___func_scene_1_actors             scene_1_actors
     00096A4B  _scene_1_actors                    scene_1_actors
     00096AB3  ___func_scene_10_actors            scene_10_actors
     00096AB3  _scene_10_actors                   scene_10_actors
ASxxxx Linker V03.00/V05.40 + sdld,  page 68.
Hexadecimal  [32-Bits]

Area                                    Addr        Size        Decimal Bytes (Attributes)
--------------------------------        ----        ----        ------- ----- ------------
_CODE_9                             00094000    00004000 =       16384. bytes (REL,CON)

      Value  Global                              Global Defined In Module
      -----  --------------------------------   ------------------------
     00096B83  ___func_scene_11_actors            scene_11_actors
     00096B83  _scene_11_actors                   scene_11_actors
     00096C1F  ___func_scene_13_actors            scene_13_actors
     00096C1F  _scene_13_actors                   scene_13_actors
     00096CBB  ___func_scene_14_actors            scene_14_actors
     00096CBB  _scene_14_actors                   scene_14_actors
     00096D57  ___func_scene_15_actors            scene_15_actors
     00096D57  _scene_15_actors                   scene_15_actors
     00096E27  ___func_scene_16_actors            scene_16_actors
     00096E27  _scene_16_actors                   scene_16_actors
     00096EC3  ___func_scene_17_actors            scene_17_actors
     00096EC3  _scene_17_actors                   scene_17_actors
     00096F2B  ___func_scene_18_actors            scene_18_actors
     00096F2B  _scene_18_actors                   scene_18_actors
     00097063  ___func_scene_19_actors            scene_19_actors
     00097063  _scene_19_actors                   scene_19_actors
     000970FF  _scene_19_init                     scene_19_init
     0009720D  ___func_scene_2_actors             scene_2_actors
     0009720D  _scene_2_actors                    scene_2_actors
     00097275  ___func_scene_20_actors            scene_20_actors
     00097275  _scene_20_actors                   scene_20_actors
     00097345  ___func_scene_20_collisions        scene_20_collisions
     00097345  _scene_20_collisions               scene_20_collisions
     00097426  ___func_scene_21_actors            scene_21_actors
     00097426  _scene_21_actors                   scene_21_actors
     0009748E  ___func_scene_3_collisions         scene_3_collisions
     0009748E  _scene_3_collisions                scene_3_collisions
     000975F6  ___func_scene_8_actors             scene_8_actors
     000975F6  _scene_8_actors                    scene_8_actors
     00097692  ___func_scene_logo_collisions      scene_logo_collisions
     00097692  _scene_logo_collisions             scene_logo_collisions
     000977FA  ___func_scene_title_screen_colli   scene_title_screen_collision
     000977FA  _scene_title_screen_collisions     scene_title_screen_collision
     00097962  _scene_title_screen_init           scene_title_screen_init
     00097A73  _script_12                         script_12
     00097B55  ___func_sprite_fritzfull_tileset   sprite_fritzfull_tileset
     00097B55  _sprite_fritzfull_tileset          sprite_fritzfull_tileset
     00097BF7  ___func_sprite_healthbar_tileset   sprite_healthbar_tileset
     00097BF7  _sprite_healthbar_tileset          sprite_healthbar_tileset
     00097CB9  ___func_sprite_kopturfull_tilese   sprite_kopturfull_tileset
     00097CB9  _sprite_kopturfull_tileset         sprite_kopturfull_tileset
     00097D3B  ___func_sprite_machine_tileset     sprite_machine_tileset
     00097D3B  _sprite_machine_tileset            sprite_machine_tileset
     00097DBD  ___func_sprite_player              sprite_player
     00097DBD  _sprite_player_metasprite_0        sprite_player
     00097DC9  _sprite_player_metasprite_1        sprite_player
     00097DD5  _sprite_player_metasprite_2        sprite_player
     00097DE1  _sprite_player_metasprite_3        sprite_player
     00097DED  _sprite_player_metasprite_4        sprite_player
     00097DF9  _sprite_player_metasprite_5        sprite_player
     00097E05  _sprite_player_metasprite_6        sprite_player
ASxxxx Linker V03.00/V05.40 + sdld,  page 69.
Hexadecimal  [32-Bits]

Area                                    Addr        Size        Decimal Bytes (Attributes)
--------------------------------        ----        ----        ------- ----- ------------
_CODE_9                             00094000    00004000 =       16384. bytes (REL,CON)

      Value  Global                              Global Defined In Module
      -----  --------------------------------   ------------------------
     00097E11  _sprite_player_metasprite_7        sprite_player
     00097E1D  _sprite_player_metasprites         sprite_player
     00097E35  _sprite_player_animations          sprite_player
     00097E45  _sprite_player_animations_lookup   sprite_player
     00097E47  _sprite_player                     sprite_player
     00097E5A  ___func_sprite_squirrelfull_tile   sprite_squirrelfull_tileset
     00097E5A  _sprite_squirrelfull_tileset       sprite_squirrelfull_tileset
     00097EFC  ___func_sprite_sword_tileset       sprite_sword_tileset
     00097EFC  _sprite_sword_tileset              sprite_sword_tileset
     00097F7E  ___func_sprite_tottenfull_tilese   sprite_tottenfull_tileset
     00097F7E  _sprite_tottenfull_tileset         sprite_tottenfull_tileset

ASxxxx Linker V03.00/V05.40 + sdld,  page 70.
Hexadecimal  [32-Bits]

Area                                    Addr        Size        Decimal Bytes (Attributes)
--------------------------------        ----        ----        ------- ----- ------------
_HEADER_SIO0                        00000000    00000004 =           4. bytes (ABS,CON)

      Value  Global                              Global Defined In Module
      -----  --------------------------------   ------------------------
ASxxxx Linker V03.00/V05.40 + sdld,  page 71.
Hexadecimal  [32-Bits]

Area                                    Addr        Size        Decimal Bytes (Attributes)
--------------------------------        ----        ----        ------- ----- ------------
_HEADER_TIMER0                      00000000    00000004 =           4. bytes (ABS,CON)

      Value  Global                              Global Defined In Module
      -----  --------------------------------   ------------------------
ASxxxx Linker V03.00/V05.40 + sdld,  page 72.
Hexadecimal  [32-Bits]

Area                                    Addr        Size        Decimal Bytes (Attributes)
--------------------------------        ----        ----        ------- ----- ------------
_CODE_8                             00084000    00003FFD =       16381. bytes (REL,CON)

      Value  Global                              Global Defined In Module
      -----  --------------------------------   ------------------------
     00084000  _set_sgb_border                    sgb_border
     000841EA  ___func_VM_PALETTE                 vm_palette
     000841EA  _vm_load_palette                   vm_palette
     00084393  _actor_0_update                    actor_0_update
     00084512  _actor_15_interact                 actor_15_interact
     0008473E  _actor_24_interact                 actor_24_interact
     0008484F  _actor_32_update                   actor_32_update
     000849CE  _actor_33_update                   actor_33_update
     00084B4D  _actor_34_update                   actor_34_update
     00084CCC  _actor_35_update                   actor_35_update
     00084E4B  _actor_36_update                   actor_36_update
     00084FCA  _actor_37_update                   actor_37_update
     00085149  _actor_38_update                   actor_38_update
     000852C8  _actor_39_update                   actor_39_update
     00085447  _actor_40_update                   actor_40_update
     000855C6  _actor_41_update                   actor_41_update
     00085745  _actor_42_update                   actor_42_update
     000858C4  _actor_43_update                   actor_43_update
     00085A43  _actor_6_update                    actor_6_update
     00085BC2  _actor_7_update                    actor_7_update
     00085D41  ___func_bg_chrisbedroom_tilemap    bg_chrisbedroom_tilemap
     00085D41  _bg_chrisbedroom_tilemap           bg_chrisbedroom_tilemap
     00085ED1  ___func_bg_chriscafe_tilemap_att   bg_chriscafe_tilemap_attr
     00085ED1  _bg_chriscafe_tilemap_attr         bg_chriscafe_tilemap_attr
     00086129  ___func_bg_chriscafe_tilemap       bg_chriscafe_tilemap
     00086129  _bg_chriscafe_tilemap              bg_chriscafe_tilemap
     00086381  ___func_bg_chrislevel3_tilemap     bg_chrislevel3_tilemap
     00086381  _bg_chrislevel3_tilemap            bg_chrislevel3_tilemap
     00086511  ___func_bg_chrislevel4_tilemap     bg_chrislevel4_tilemap
     00086511  _bg_chrislevel4_tilemap            bg_chrislevel4_tilemap
     000866A1  ___func_bg_chrislivingroom_tilem   bg_chrislivingroom_tilemap
     000866A1  _bg_chrislivingroom_tilemap        bg_chrislivingroom_tilemap
     00086831  ___func_bg_computerlablevel4_til   bg_computerlablevel4_tilemap
     00086831  _bg_computerlablevel4_tilemap      bg_computerlablevel4_tilemap
     000869C1  ___func_bg_menu_tilemap            bg_menu_tilemap
     000869C1  _bg_menu_tilemap                   bg_menu_tilemap
     00086B29  ___func_bg_rosiesbathroom2_tilem   bg_rosiesbathroom2_tilemap
     00086B29  _bg_rosiesbathroom2_tilemap        bg_rosiesbathroom2_tilemap
     00086CB9  ___func_bg_sleepy_fox_tilemap      bg_sleepy_fox_tilemap
     00086CB9  _bg_sleepy_fox_tilemap             bg_sleepy_fox_tilemap
     00086E21  ___func_bg_win_tilemap             bg_win_tilemap
     00086E21  _bg_win_tilemap                    bg_win_tilemap
     00086F89  ___func_scene_1_collisions         scene_1_collisions
     00086F89  _scene_1_collisions                scene_1_collisions
     00087119  ___func_scene_12_actors            scene_12_actors
     00087119  _scene_12_actors                   scene_12_actors
     000872B9  ___func_scene_17_collisions        scene_17_collisions
     000872B9  _scene_17_collisions               scene_17_collisions
     00087449  _scene_18_init                     scene_18_init
     000875E3  ___func_scene_19_collisions        scene_19_collisions
ASxxxx Linker V03.00/V05.40 + sdld,  page 73.
Hexadecimal  [32-Bits]

Area                                    Addr        Size        Decimal Bytes (Attributes)
--------------------------------        ----        ----        ------- ----- ------------
_CODE_8                             00084000    00003FFD =       16381. bytes (REL,CON)

      Value  Global                              Global Defined In Module
      -----  --------------------------------   ------------------------
     000875E3  _scene_19_collisions               scene_19_collisions
     00087773  ___func_scene_2_collisions         scene_2_collisions
     00087773  _scene_2_collisions                scene_2_collisions
     00087903  ___func_scene_21_collisions        scene_21_collisions
     00087903  _scene_21_collisions               scene_21_collisions
     00087B5B  ___func_scene_22_collisions        scene_22_collisions
     00087B5B  _scene_22_collisions               scene_22_collisions
     00087CEB  ___func_scene_7_collisions         scene_7_collisions
     00087CEB  _scene_7_collisions                scene_7_collisions
     00087E7B  ___func_sprite_player_tileset      sprite_player_tileset
     00087E7B  _sprite_player_tileset             sprite_player_tileset

ASxxxx Linker V03.00/V05.40 + sdld,  page 74.
Hexadecimal  [32-Bits]

Area                                    Addr        Size        Decimal Bytes (Attributes)
--------------------------------        ----        ----        ------- ----- ------------
_CODE_2                             00024000    00004000 =       16384. bytes (REL,CON)

      Value  Global                              Global Defined In Module
      -----  --------------------------------   ------------------------
     00024000  ___func_VM_ACTOR                   vm_actor
     00024000  _vm_actor_move_to                  vm_actor
     0002499C  _vm_actor_move_cancel              vm_actor
     000249D2  _vm_actor_activate                 vm_actor
     00024A23  _vm_actor_deactivate               vm_actor
     00024A74  _vm_actor_begin_update             vm_actor
     00024AFB  _vm_actor_terminate_update         vm_actor
     00024B42  _vm_actor_set_dir                  vm_actor
     00024B8B  _vm_actor_set_anim                 vm_actor
     00024C19  _vm_actor_set_pos                  vm_actor
     00024C93  _vm_actor_get_pos                  vm_actor
     00024D02  _vm_actor_get_dir                  vm_actor
     00024D7C  _vm_actor_get_angle                vm_actor
     00024DFD  _vm_actor_emote                    vm_actor
     00024EC1  _vm_actor_set_bounds               vm_actor
     00024F1F  _vm_actor_set_spritesheet          vm_actor
     00024FE9  _vm_actor_replace_tile             vm_actor
     00025054  _vm_actor_set_anim_tick            vm_actor
     00025092  _vm_actor_set_move_speed           vm_actor
     000250D0  _vm_actor_set_anim_frame           vm_actor
     00025114  _vm_actor_get_anim_frame           vm_actor
     0002515E  _vm_actor_set_anim_set             vm_actor
     000251E6  _vm_actor_set_spritesheet_by_ref   vm_actor
     000252F3  _vm_actor_set_flags                vm_actor
     000253A1  ___func_VM_MAIN                    vm
     000253A1  _vm_call                           vm
     000253E3  _vm_ret                            vm
     00025443  _vm_call_far                       vm
     000254C2  _vm_ret_far                        vm
     0002553A  _vm_push                           vm
     00025565  _vm_pop                            vm
     000255A0  _vm_loop                           vm
     0002562B  _vm_jump                           vm
     00025637  _wait_frames                       vm
     000256AD  _vm_invoke                         vm
     000257DA  _vm_join                           vm
     0002583C  _vm_terminate                      vm
     00025869  _vm_if                             vm
     000259AE  _vm_if_const                       vm
     00025AC3  _vm_push_value                     vm
     00025B15  _vm_push_value_ind                 vm
     00025B8A  _vm_push_reference                 vm
     00025BE1  _vm_reserve                        vm
     00025C0F  _vm_set                            vm
     00025C70  _vm_set_const                      vm
     00025C9C  _vm_get_tlocal                     vm
     00025D29  _vm_test_terminate                 vm
     00025D34  _vm_idle                           vm
     00025D40  _vm_get_uint8                      vm
     00025D73  _vm_get_int8                       vm
ASxxxx Linker V03.00/V05.40 + sdld,  page 75.
Hexadecimal  [32-Bits]

Area                                    Addr        Size        Decimal Bytes (Attributes)
--------------------------------        ----        ----        ------- ----- ------------
_CODE_2                             00024000    00004000 =       16384. bytes (REL,CON)

      Value  Global                              Global Defined In Module
      -----  --------------------------------   ------------------------
     00025DA7  _vm_get_int16                      vm
     00025DE9  _vm_set_uint8                      vm
     00025E15  _vm_set_int8                       vm
     00025E41  _vm_set_int16                      vm
     00025E80  _vm_set_const_int8                 vm
     00025E89  _vm_set_const_int16                vm
     00025E95  _vm_init_rng                       vm
     00025EC1  _vm_rand                           vm
     00025F46  _vm_lock                           vm
     00025F55  _vm_unlock                         vm
     00025F68  _vm_raise                          vm
     00025FAA  _vm_set_indirect                   vm
     00026025  _vm_get_indirect                   vm
     000260A0  _vm_poll_loaded                    vm
     000260D0  _vm_memset                         vm
     0002610A  _vm_memcpy                         vm
     00026187  _script_runner_init                vm
     0002623E  _script_execute                    vm
     000263A4  _script_terminate                  vm
     00026409  _script_detach_hthread             vm
     00026445  ___func_bg_chrisbedroom_tilemap_   bg_chrisbedroom_tilemap_attr
     00026445  _bg_chrisbedroom_tilemap_attr      bg_chrisbedroom_tilemap_attr
     000265D5  ___func_bg_chrislevel1_tileset     bg_chrislevel1_tileset
     000265D5  _bg_chrislevel1_tileset            bg_chrislevel1_tileset
     00027177  ___func_font_gbs_variable_width    font_gbs_variable_width
     00027FF2  _font_gbs_variable_width           font_gbs_variable_width
     00027FFA  ___func_scene_logo_sprites         scene_logo_sprites
     00027FFA  _scene_logo_sprites                scene_logo_sprites
ASxxxx Linker V03.00/V05.40 + sdld,  page 76.
Hexadecimal  [32-Bits]

Area                                    Addr        Size        Decimal Bytes (Attributes)
--------------------------------        ----        ----        ------- ----- ------------
_CODE_4                             00044000    00003FFC =       16380. bytes (REL,CON)

      Value  Global                              Global Defined In Module
      -----  --------------------------------   ------------------------
     00044000  ___func_VM_GAMEBOY                 vm_gameboy
     00044000  _vm_set_sprites_visible            vm_gameboy
     00044017  _vm_input_wait                     vm_gameboy
     00044040  _vm_context_prepare                vm_gameboy
     0004406B  _vm_input_attach                   vm_gameboy
     00044081  _vm_input_detach                   vm_gameboy
     00044095  _vm_input_get                      vm_gameboy
     000440C9  _vm_fade                           vm_gameboy
     000440F9  _vm_timer_prepare                  vm_gameboy
     00044124  _vm_timer_set                      vm_gameboy
     0004413F  _vm_timer_stop                     vm_gameboy
     00044153  _vm_timer_reset                    vm_gameboy
     0004416A  _vm_get_tile_xy                    vm_gameboy
     00044240  _vm_replace_tile                   vm_gameboy
     000442E7  _vm_poll                           vm_gameboy
     000443B9  _vm_set_sprite_mode                vm_gameboy
     000443CD  _vm_replace_tile_xy                vm_gameboy
     000445AD  _vm_rumble                         vm_gameboy
     000445CD  _vm_load_tiles                     vm_gameboy
     000445E2  _vm_load_tileset                   vm_gameboy
     000446B3  ___func_VM_UI                      vm_ui
     000446B3  _vm_display_text                   vm_ui
     00044721  _vm_switch_text_layer              vm_ui
     0004473B  _vm_overlay_setpos                 vm_ui
     00044755  _vm_overlay_wait                   vm_ui
     000447E5  _vm_overlay_move_to                vm_ui
     00044829  _vm_overlay_set_scroll             vm_ui
     00044862  _vm_overlay_clear                  vm_ui
     00044934  _vm_overlay_show                   vm_ui
     00044982  _vm_choice                         vm_ui
     00044A9D  _vm_set_font                       vm_ui
     00044ACC  _vm_overlay_scroll                 vm_ui
     00044B2D  _vm_overlay_set_submap             vm_ui
     00044B99  _vm_overlay_set_submap_ex          vm_ui
     00044C9A  _vm_overlay_set_map                vm_ui
     00044DF9  _vm_set_text_sound                 vm_ui
     00044E12  _actor_32_interact                 actor_32_interact
     00044E95  ___func_bg_dungeonlevel4_bossroo   bg_dungeonlevel4_bossroom_ti
     00044E95  _bg_dungeonlevel4_bossroom_tilem   bg_dungeonlevel4_bossroom_ti
     00045471  ___func_bg_hubarea_tileset         bg_hubarea_tileset
     00045471  _bg_hubarea_tileset                bg_hubarea_tileset
     00045AC3  ___func_bg_menu_tileset            bg_menu_tileset
     00045AC3  _bg_menu_tileset                   bg_menu_tileset
     00046255  ___func_bg_win_tileset             bg_win_tileset
     00046255  _bg_win_tileset                    bg_win_tileset
     00046AA7  _adventure_init                    adventure
     00046ABC  _adventure_update                  adventure
     00047173  _shmup_init                        shmup
     00047210  _shmup_update                      shmup
     0004793B  _topdown_init                      topdown
ASxxxx Linker V03.00/V05.40 + sdld,  page 77.
Hexadecimal  [32-Bits]

Area                                    Addr        Size        Decimal Bytes (Attributes)
--------------------------------        ----        ----        ------- ----- ------------
_CODE_4                             00044000    00003FFC =       16380. bytes (REL,CON)

      Value  Global                              Global Defined In Module
      -----  --------------------------------   ------------------------
     000479D2  _topdown_update                    topdown
ASxxxx Linker V03.00/V05.40 + sdld,  page 78.
Hexadecimal  [32-Bits]

Area                                    Addr        Size        Decimal Bytes (Attributes)
--------------------------------        ----        ----        ------- ----- ------------
_CODE_5                             00054000    00003FFD =       16381. bytes (REL,CON)

      Value  Global                              Global Defined In Module
      -----  --------------------------------   ------------------------
     00054000  ___func_bg_chriscafe_tileset       bg_chriscafe_tileset
     00054000  _bg_chriscafe_tileset              bg_chriscafe_tileset
     00054512  ___func_bg_chrislevel2_tileset     bg_chrislevel2_tileset
     00054512  _bg_chrislevel2_tileset            bg_chrislevel2_tileset
     00054A94  ___func_bg_chrislevel3_tileset     bg_chrislevel3_tileset
     00054A94  _bg_chrislevel3_tileset            bg_chrislevel3_tileset
     00054FB6  ___func_bg_computerlablevel3_til   bg_computerlablevel3_tileset
     00054FB6  _bg_computerlablevel3_tileset      bg_computerlablevel3_tileset
     00055568  ___func_bg_dungeonlevel1_tilemap   bg_dungeonlevel1_tilemap_att
     00055568  _bg_dungeonlevel1_tilemap_attr     bg_dungeonlevel1_tilemap_att
     000559EC  ___func_bg_dungeonlevel1_tileset   bg_dungeonlevel1_tileset
     000559EC  _bg_dungeonlevel1_tileset          bg_dungeonlevel1_tileset
     00055F7E  ___func_bg_dungeonlevel2_tilemap   bg_dungeonlevel2_tilemap_att
     00055F7E  _bg_dungeonlevel2_tilemap_attr     bg_dungeonlevel2_tilemap_att
     00056447  ___func_bg_dungeonlevel2_tilemap   bg_dungeonlevel2_tilemap
     00056447  _bg_dungeonlevel2_tilemap          bg_dungeonlevel2_tilemap
     00056910  ___func_bg_dungeonlevel4_bossroo   bg_dungeonlevel4_bossroom_ti
     00056910  _bg_dungeonlevel4_bossroom_tilem   bg_dungeonlevel4_bossroom_ti
     00056EEC  ___func_bg_menu_tilemap_attr       bg_menu_tilemap_attr
     00056EEC  _bg_menu_tilemap_attr              bg_menu_tilemap_attr
     00057054  ___func_bg_rosiesv2_tileset        bg_rosiesv2_tileset
     00057054  _bg_rosiesv2_tileset               bg_rosiesv2_tileset
     00057546  ___func_scene_12_collisions        scene_12_collisions
     00057546  _scene_12_collisions               scene_12_collisions
     00057A0F  ___func_scene_14_collisions        scene_14_collisions
     00057A0F  _scene_14_collisions               scene_14_collisions
     00057FEB  _script_init_menu                  script_init_menu
ASxxxx Linker V03.00/V05.40 + sdld,  page 79.
Hexadecimal  [32-Bits]

Area                                    Addr        Size        Decimal Bytes (Attributes)
--------------------------------        ----        ----        ------- ----- ------------
_HEADER_LCD0                        00000000    00000003 =           3. bytes (ABS,CON)

      Value  Global                              Global Defined In Module
      -----  --------------------------------   ------------------------
ASxxxx Linker V03.00/V05.40 + sdld,  page 80.

Files Linked                              [ module(s) ]

C:\tmp/_gbstools/gbdk/lib/gb/crt0.o       [ Runtime ]
C:/tmp/_gbsbuild/obj/absolute.rel         [ absolute ]
C:/tmp/_gbsbuild/obj/actor.rel            [ actor ]
C:/tmp/_gbsbuild/obj/bankdata.rel         [ bankdata ]
C:/tmp/_gbsbuild/obj/bootstrap.rel        [  ]
C:/tmp/_gbsbuild/obj/camera.rel           [ camera ]
C:/tmp/_gbsbuild/obj/core.rel             [ core ]
C:/tmp/_gbsbuild/obj/crash_handler.rel    [  ]
C:/tmp/_gbsbuild/obj/data_manager.rel     [ data_manager ]
C:/tmp/_gbsbuild/obj/events.rel           [ events ]
C:/tmp/_gbsbuild/obj/fade_manager.rel     [ fade_manager ]
C:/tmp/_gbsbuild/obj/flasher_s.rel        [  ]
C:/tmp/_gbsbuild/obj/flasher.rel          [ flasher ]
C:/tmp/_gbsbuild/obj/game_time.rel        [ game_time ]
C:/tmp/_gbsbuild/obj/gbprinter.rel        [ gbprinter ]
C:/tmp/_gbsbuild/obj/input.rel            [ input ]
C:/tmp/_gbsbuild/obj/interrupt_sio.rel    [  ]
C:/tmp/_gbsbuild/obj/interrupt_timer.rel  [  ]
C:/tmp/_gbsbuild/obj/interrupts.rel       [ interrupts ]
C:/tmp/_gbsbuild/obj/load_save.rel        [ load_save ]
C:/tmp/_gbsbuild/obj/math_atan2.rel       [ math_atan2 ]
C:/tmp/_gbsbuild/obj/math.rel             [ math ]
C:/tmp/_gbsbuild/obj/music_manager.rel    [ music_manager ]
C:/tmp/_gbsbuild/obj/palette.rel          [ palette ]
C:/tmp/_gbsbuild/obj/parallax.rel         [ parallax ]
C:/tmp/_gbsbuild/obj/projectiles.rel      [ projectiles ]
C:/tmp/_gbsbuild/obj/scroll_a.rel         [  ]
C:/tmp/_gbsbuild/obj/scroll.rel           [ scroll ]
C:/tmp/_gbsbuild/obj/set_tile_submap.rel  [  ]
C:/tmp/_gbsbuild/obj/sfx_player.rel       [ sfx_player ]
C:/tmp/_gbsbuild/obj/sgb_border.rel       [ sgb_border ]
C:/tmp/_gbsbuild/obj/sio.rel              [ sio ]
C:/tmp/_gbsbuild/obj/states_caller.rel    [  ]
C:/tmp/_gbsbuild/obj/system.rel           [ system ]
C:/tmp/_gbsbuild/obj/trigger.rel          [ trigger ]
C:/tmp/_gbsbuild/obj/ui_a.rel             [  ]
C:/tmp/_gbsbuild/obj/ui.rel               [ ui ]
C:/tmp/_gbsbuild/obj/vm_actor.rel         [ vm_actor ]
C:/tmp/_gbsbuild/obj/vm_camera.rel        [ vm_camera ]
C:/tmp/_gbsbuild/obj/vm_gameboy.rel       [ vm_gameboy ]
C:/tmp/_gbsbuild/obj/vm_gbprinter.rel     [ vm_gbprinter ]
C:/tmp/_gbsbuild/obj/vm_instructions.rel  [ vm_instructions ]
C:/tmp/_gbsbuild/obj/vm_load_save.rel     [ vm_load_save ]
C:/tmp/_gbsbuild/obj/vm_math.rel          [ vm_math ]
C:/tmp/_gbsbuild/obj/vm_music.rel         [ vm_music ]
C:/tmp/_gbsbuild/obj/vm_palette.rel       [ vm_palette ]
C:/tmp/_gbsbuild/obj/vm_projectiles.rel   [ vm_projectiles ]
C:/tmp/_gbsbuild/obj/vm_rtc.rel           [ vm_rtc ]
C:/tmp/_gbsbuild/obj/vm_scene.rel         [ vm_scene ]
C:/tmp/_gbsbuild/obj/vm_sgb.rel           [ vm_sgb ]
C:/tmp/_gbsbuild/obj/vm_sio.rel           [ vm_sio ]
C:/tmp/_gbsbuild/obj/vm_ui_a.rel          [ vm_ui_a ]
C:/tmp/_gbsbuild/obj/vm_ui.rel            [ vm_ui ]
C:/tmp/_gbsbuild/obj/vm.rel               [ vm ]
C:/tmp/_gbsbuild/obj/actor_0_interact.rel
                                          [ actor_0_interact ]
C:/tmp/_gbsbuild/obj/actor_0_update.rel   [ actor_0_update ]
C:/tmp/_gbsbuild/obj/actor_1_interact.rel
                                          [ actor_1_interact ]
C:/tmp/_gbsbuild/obj/actor_10_update.rel  [ actor_10_update ]
C:/tmp/_gbsbuild/obj/actor_11_update.rel  [ actor_11_update ]
C:/tmp/_gbsbuild/obj/actor_12_interact.rel
                                          [ actor_12_interact ]
C:/tmp/_gbsbuild/obj/actor_14_interact.rel
                                          [ actor_14_interact ]
C:/tmp/_gbsbuild/obj/actor_15_interact.rel
                                          [ actor_15_interact ]
C:/tmp/_gbsbuild/obj/actor_16_update.rel  [ actor_16_update ]
C:/tmp/_gbsbuild/obj/actor_17_update.rel  [ actor_17_update ]
C:/tmp/_gbsbuild/obj/actor_18_update.rel  [ actor_18_update ]
C:/tmp/_gbsbuild/obj/actor_19_update.rel  [ actor_19_update ]
C:/tmp/_gbsbuild/obj/actor_2_interact.rel
                                          [ actor_2_interact ]
C:/tmp/_gbsbuild/obj/actor_20_update.rel  [ actor_20_update ]
C:/tmp/_gbsbuild/obj/actor_21_interact.rel
                                          [ actor_21_interact ]
C:/tmp/_gbsbuild/obj/actor_22_update.rel  [ actor_22_update ]
C:/tmp/_gbsbuild/obj/actor_23_update.rel  [ actor_23_update ]
C:/tmp/_gbsbuild/obj/actor_24_interact.rel
                                          [ actor_24_interact ]
C:/tmp/_gbsbuild/obj/actor_24_update.rel  [ actor_24_update ]
C:/tmp/_gbsbuild/obj/actor_25_interact.rel
                                          [ actor_25_interact ]
C:/tmp/_gbsbuild/obj/actor_26_update.rel  [ actor_26_update ]
C:/tmp/_gbsbuild/obj/actor_27_interact.rel
                                          [ actor_27_interact ]
C:/tmp/_gbsbuild/obj/actor_28_interact.rel
                                          [ actor_28_interact ]
C:/tmp/_gbsbuild/obj/actor_29_interact.rel
                                          [ actor_29_interact ]
C:/tmp/_gbsbuild/obj/actor_3_interact.rel
                                          [ actor_3_interact ]
C:/tmp/_gbsbuild/obj/actor_30_interact.rel
                                          [ actor_30_interact ]
C:/tmp/_gbsbuild/obj/actor_32_interact.rel
                                          [ actor_32_interact ]
C:/tmp/_gbsbuild/obj/actor_32_update.rel  [ actor_32_update ]
C:/tmp/_gbsbuild/obj/actor_33_interact.rel
                                          [ actor_33_interact ]
C:/tmp/_gbsbuild/obj/actor_33_update.rel  [ actor_33_update ]
C:/tmp/_gbsbuild/obj/actor_34_interact.rel
                                          [ actor_34_interact ]
C:/tmp/_gbsbuild/obj/actor_34_update.rel  [ actor_34_update ]
C:/tmp/_gbsbuild/obj/actor_35_interact.rel
                                          [ actor_35_interact ]
C:/tmp/_gbsbuild/obj/actor_35_update.rel  [ actor_35_update ]
C:/tmp/_gbsbuild/obj/actor_36_interact.rel
                                          [ actor_36_interact ]
C:/tmp/_gbsbuild/obj/actor_36_update.rel  [ actor_36_update ]
C:/tmp/_gbsbuild/obj/actor_37_interact.rel
                                          [ actor_37_interact ]
C:/tmp/_gbsbuild/obj/actor_37_update.rel  [ actor_37_update ]
C:/tmp/_gbsbuild/obj/actor_38_interact.rel
                                          [ actor_38_interact ]
C:/tmp/_gbsbuild/obj/actor_38_update.rel  [ actor_38_update ]
C:/tmp/_gbsbuild/obj/actor_39_interact.rel
                                          [ actor_39_interact ]
C:/tmp/_gbsbuild/obj/actor_39_update.rel  [ actor_39_update ]
C:/tmp/_gbsbuild/obj/actor_4_update.rel   [ actor_4_update ]
C:/tmp/_gbsbuild/obj/actor_40_interact.rel
                                          [ actor_40_interact ]
C:/tmp/_gbsbuild/obj/actor_40_update.rel  [ actor_40_update ]
C:/tmp/_gbsbuild/obj/actor_41_interact.rel
                                          [ actor_41_interact ]
C:/tmp/_gbsbuild/obj/actor_41_update.rel  [ actor_41_update ]
C:/tmp/_gbsbuild/obj/actor_42_interact.rel
                                          [ actor_42_interact ]
C:/tmp/_gbsbuild/obj/actor_42_update.rel  [ actor_42_update ]
C:/tmp/_gbsbuild/obj/actor_43_interact.rel
                                          [ actor_43_interact ]
C:/tmp/_gbsbuild/obj/actor_43_update.rel  [ actor_43_update ]
C:/tmp/_gbsbuild/obj/actor_44_update.rel  [ actor_44_update ]
C:/tmp/_gbsbuild/obj/actor_45_update.rel  [ actor_45_update ]
C:/tmp/_gbsbuild/obj/actor_46_update.rel  [ actor_46_update ]
C:/tmp/_gbsbuild/obj/actor_47_update.rel  [ actor_47_update ]
C:/tmp/_gbsbuild/obj/actor_48_update.rel  [ actor_48_update ]
C:/tmp/_gbsbuild/obj/actor_49_update.rel  [ actor_49_update ]
C:/tmp/_gbsbuild/obj/actor_5_update.rel   [ actor_5_update ]
C:/tmp/_gbsbuild/obj/actor_50_update.rel  [ actor_50_update ]
C:/tmp/_gbsbuild/obj/actor_51_interact.rel
                                          [ actor_51_interact ]
C:/tmp/_gbsbuild/obj/actor_52_interact.rel
                                          [ actor_52_interact ]
C:/tmp/_gbsbuild/obj/actor_53_interact.rel
                                          [ actor_53_interact ]
C:/tmp/_gbsbuild/obj/actor_54_interact.rel
                                          [ actor_54_interact ]
C:/tmp/_gbsbuild/obj/actor_55_update.rel  [ actor_55_update ]
C:/tmp/_gbsbuild/obj/actor_56_interact.rel
                                          [ actor_56_interact ]
C:/tmp/_gbsbuild/obj/actor_57_interact.rel
                                          [ actor_57_interact ]
C:/tmp/_gbsbuild/obj/actor_58_interact.rel
                                          [ actor_58_interact ]
C:/tmp/_gbsbuild/obj/actor_59_interact.rel
                                          [ actor_59_interact ]
C:/tmp/_gbsbuild/obj/actor_6_interact.rel
                                          [ actor_6_interact ]
C:/tmp/_gbsbuild/obj/actor_6_update.rel   [ actor_6_update ]
C:/tmp/_gbsbuild/obj/actor_60_interact.rel
                                          [ actor_60_interact ]
C:/tmp/_gbsbuild/obj/actor_61_interact.rel
                                          [ actor_61_interact ]
C:/tmp/_gbsbuild/obj/actor_7_interact.rel
                                          [ actor_7_interact ]
C:/tmp/_gbsbuild/obj/actor_7_update.rel   [ actor_7_update ]
C:/tmp/_gbsbuild/obj/actor_8_interact.rel
                                          [ actor_8_interact ]
C:/tmp/_gbsbuild/obj/actor_9_interact.rel
                                          [ actor_9_interact ]
C:/tmp/_gbsbuild/obj/actor_9_update.rel   [ actor_9_update ]
C:/tmp/_gbsbuild/obj/avatar_font_0.rel    [ avatar_font_0 ]
C:/tmp/_gbsbuild/obj/bg_chrisbedroom_tilemap_attr.rel
                                          [ bg_chrisbedroom_tilemap_attr ]
C:/tmp/_gbsbuild/obj/bg_chrisbedroom_tilemap.rel
                                          [ bg_chrisbedroom_tilemap ]
C:/tmp/_gbsbuild/obj/bg_chrisbedroom_tileset.rel
                                          [ bg_chrisbedroom_tileset ]
C:/tmp/_gbsbuild/obj/bg_chrisbedroom.rel  [ bg_chrisbedroom ]
C:/tmp/_gbsbuild/obj/bg_chriscafe_tilemap_attr.rel
                                          [ bg_chriscafe_tilemap_attr ]
C:/tmp/_gbsbuild/obj/bg_chriscafe_tilemap.rel
                                          [ bg_chriscafe_tilemap ]
C:/tmp/_gbsbuild/obj/bg_chriscafe_tileset.rel
                                          [ bg_chriscafe_tileset ]
C:/tmp/_gbsbuild/obj/bg_chriscafe.rel     [ bg_chriscafe ]
C:/tmp/_gbsbuild/obj/bg_chrislevel1_tilemap_attr.rel
                                          [ bg_chrislevel1_tilemap_attr ]
C:/tmp/_gbsbuild/obj/bg_chrislevel1_tilemap.rel
                                          [ bg_chrislevel1_tilemap ]
C:/tmp/_gbsbuild/obj/bg_chrislevel1_tileset.rel
                                          [ bg_chrislevel1_tileset ]
C:/tmp/_gbsbuild/obj/bg_chrislevel1.rel   [ bg_chrislevel1 ]
C:/tmp/_gbsbuild/obj/bg_chrislevel2_tilemap_attr.rel
                                          [ bg_chrislevel2_tilemap_attr ]
C:/tmp/_gbsbuild/obj/bg_chrislevel2_tilemap.rel
                                          [ bg_chrislevel2_tilemap ]
C:/tmp/_gbsbuild/obj/bg_chrislevel2_tileset.rel
                                          [ bg_chrislevel2_tileset ]
C:/tmp/_gbsbuild/obj/bg_chrislevel2.rel   [ bg_chrislevel2 ]
C:/tmp/_gbsbuild/obj/bg_chrislevel3_tilemap.rel
                                          [ bg_chrislevel3_tilemap ]
C:/tmp/_gbsbuild/obj/bg_chrislevel3_tileset.rel
                                          [ bg_chrislevel3_tileset ]
C:/tmp/_gbsbuild/obj/bg_chrislevel3.rel   [ bg_chrislevel3 ]
C:/tmp/_gbsbuild/obj/bg_chrislevel4_tilemap.rel
                                          [ bg_chrislevel4_tilemap ]
C:/tmp/_gbsbuild/obj/bg_chrislevel4_tileset.rel
                                          [ bg_chrislevel4_tileset ]
C:/tmp/_gbsbuild/obj/bg_chrislevel4.rel   [ bg_chrislevel4 ]
C:/tmp/_gbsbuild/obj/bg_chrislivingroom_tilemap.rel
                                          [ bg_chrislivingroom_tilemap ]
C:/tmp/_gbsbuild/obj/bg_chrislivingroom_tileset.rel
                                          [ bg_chrislivingroom_tileset ]
C:/tmp/_gbsbuild/obj/bg_chrislivingroom.rel
                                          [ bg_chrislivingroom ]
C:/tmp/_gbsbuild/obj/bg_computerlablevel1_tilemap_attr.rel
                                          [ bg_computerlablevel1_tilemap_att ]
C:/tmp/_gbsbuild/obj/bg_computerlablevel1_tilemap.rel
                                          [ bg_computerlablevel1_tilemap ]
C:/tmp/_gbsbuild/obj/bg_computerlablevel1_tileset.rel
                                          [ bg_computerlablevel1_tileset ]
C:/tmp/_gbsbuild/obj/bg_computerlablevel1.rel
                                          [ bg_computerlablevel1 ]
C:/tmp/_gbsbuild/obj/bg_computerlablevel2_tilemap_attr.rel
                                          [ bg_computerlablevel2_tilemap_att ]
C:/tmp/_gbsbuild/obj/bg_computerlablevel2_tilemap.rel
                                          [ bg_computerlablevel2_tilemap ]
C:/tmp/_gbsbuild/obj/bg_computerlablevel2_tileset.rel
                                          [ bg_computerlablevel2_tileset ]
C:/tmp/_gbsbuild/obj/bg_computerlablevel2.rel
                                          [ bg_computerlablevel2 ]
C:/tmp/_gbsbuild/obj/bg_computerlablevel3_tilemap.rel
                                          [ bg_computerlablevel3_tilemap ]
C:/tmp/_gbsbuild/obj/bg_computerlablevel3_tileset.rel
                                          [ bg_computerlablevel3_tileset ]
C:/tmp/_gbsbuild/obj/bg_computerlablevel3.rel
                                          [ bg_computerlablevel3 ]
C:/tmp/_gbsbuild/obj/bg_computerlablevel4_tilemap.rel
                                          [ bg_computerlablevel4_tilemap ]
C:/tmp/_gbsbuild/obj/bg_computerlablevel4_tileset.rel
                                          [ bg_computerlablevel4_tileset ]
C:/tmp/_gbsbuild/obj/bg_computerlablevel4.rel
                                          [ bg_computerlablevel4 ]
C:/tmp/_gbsbuild/obj/bg_dungeonlevel1_tilemap_attr.rel
                                          [ bg_dungeonlevel1_tilemap_attr ]
C:/tmp/_gbsbuild/obj/bg_dungeonlevel1_tilemap.rel
                                          [ bg_dungeonlevel1_tilemap ]
C:/tmp/_gbsbuild/obj/bg_dungeonlevel1_tileset.rel
                                          [ bg_dungeonlevel1_tileset ]
C:/tmp/_gbsbuild/obj/bg_dungeonlevel1.rel
                                          [ bg_dungeonlevel1 ]
C:/tmp/_gbsbuild/obj/bg_dungeonlevel2_tilemap_attr.rel
                                          [ bg_dungeonlevel2_tilemap_attr ]
C:/tmp/_gbsbuild/obj/bg_dungeonlevel2_tilemap.rel
                                          [ bg_dungeonlevel2_tilemap ]
C:/tmp/_gbsbuild/obj/bg_dungeonlevel2_tileset.rel
                                          [ bg_dungeonlevel2_tileset ]
C:/tmp/_gbsbuild/obj/bg_dungeonlevel2.rel
                                          [ bg_dungeonlevel2 ]
C:/tmp/_gbsbuild/obj/bg_dungeonlevel3_tilemap.rel
                                          [ bg_dungeonlevel3_tilemap ]
C:/tmp/_gbsbuild/obj/bg_dungeonlevel3_tileset.rel
                                          [ bg_dungeonlevel3_tileset ]
C:/tmp/_gbsbuild/obj/bg_dungeonlevel3.rel
                                          [ bg_dungeonlevel3 ]
C:/tmp/_gbsbuild/obj/bg_dungeonlevel4_bossroom_tilemap_attr.rel
                                          [ bg_dungeonlevel4_bossroom_tilema ]
C:/tmp/_gbsbuild/obj/bg_dungeonlevel4_bossroom_tilemap.rel
                                          [ bg_dungeonlevel4_bossroom_tilema ]
C:/tmp/_gbsbuild/obj/bg_dungeonlevel4_bossroom_tileset.rel
                                          [ bg_dungeonlevel4_bossroom_tilese ]
C:/tmp/_gbsbuild/obj/bg_dungeonlevel4_bossroom.rel
                                          [ bg_dungeonlevel4_bossroom ]
C:/tmp/_gbsbuild/obj/bg_hubarea_tilemap_attr.rel
                                          [ bg_hubarea_tilemap_attr ]
C:/tmp/_gbsbuild/obj/bg_hubarea_tilemap.rel
                                          [ bg_hubarea_tilemap ]
C:/tmp/_gbsbuild/obj/bg_hubarea_tileset.rel
                                          [ bg_hubarea_tileset ]
C:/tmp/_gbsbuild/obj/bg_hubarea.rel       [ bg_hubarea ]
C:/tmp/_gbsbuild/obj/bg_menu_tilemap_attr.rel
                                          [ bg_menu_tilemap_attr ]
C:/tmp/_gbsbuild/obj/bg_menu_tilemap.rel  [ bg_menu_tilemap ]
C:/tmp/_gbsbuild/obj/bg_menu_tileset.rel  [ bg_menu_tileset ]
C:/tmp/_gbsbuild/obj/bg_menu.rel          [ bg_menu ]
C:/tmp/_gbsbuild/obj/bg_rosiesbathroom2_tilemap.rel
                                          [ bg_rosiesbathroom2_tilemap ]
C:/tmp/_gbsbuild/obj/bg_rosiesbathroom2_tileset.rel
                                          [ bg_rosiesbathroom2_tileset ]
C:/tmp/_gbsbuild/obj/bg_rosiesbathroom2.rel
                                          [ bg_rosiesbathroom2 ]
C:/tmp/_gbsbuild/obj/bg_rosiesv2_tilemap_attr.rel
                                          [ bg_rosiesv2_tilemap_attr ]
C:/tmp/_gbsbuild/obj/bg_rosiesv2_tilemap.rel
                                          [ bg_rosiesv2_tilemap ]
C:/tmp/_gbsbuild/obj/bg_rosiesv2_tileset.rel
                                          [ bg_rosiesv2_tileset ]
C:/tmp/_gbsbuild/obj/bg_rosiesv2.rel      [ bg_rosiesv2 ]
C:/tmp/_gbsbuild/obj/bg_sleepy_fox_tilemap.rel
                                          [ bg_sleepy_fox_tilemap ]
C:/tmp/_gbsbuild/obj/bg_sleepy_fox_tileset.rel
                                          [ bg_sleepy_fox_tileset ]
C:/tmp/_gbsbuild/obj/bg_sleepy_fox.rel    [ bg_sleepy_fox ]
C:/tmp/_gbsbuild/obj/bg_win_tilemap.rel   [ bg_win_tilemap ]
C:/tmp/_gbsbuild/obj/bg_win_tileset.rel   [ bg_win_tileset ]
C:/tmp/_gbsbuild/obj/bg_win.rel           [ bg_win ]
C:/tmp/_gbsbuild/obj/cursor_image.rel     [ cursor_image ]
C:/tmp/_gbsbuild/obj/font_gbs_variable_width.rel
                                          [ font_gbs_variable_width ]
C:/tmp/_gbsbuild/obj/frame_image.rel      [ frame_image ]
C:/tmp/_gbsbuild/obj/game_signature.rel   [ game_signature ]
C:/tmp/_gbsbuild/obj/song_rulz_intro_0_Data.rel
                                          [ song_rulz_intro_0_Data ]
C:/tmp/_gbsbuild/obj/palette_0.rel        [ palette_0 ]
C:/tmp/_gbsbuild/obj/palette_1.rel        [ palette_1 ]
C:/tmp/_gbsbuild/obj/scene_0_actors.rel   [ scene_0_actors ]
C:/tmp/_gbsbuild/obj/scene_0_collisions.rel
                                          [ scene_0_collisions ]
C:/tmp/_gbsbuild/obj/scene_0_init.rel     [ scene_0_init ]
C:/tmp/_gbsbuild/obj/scene_0_p_hit1.rel   [ scene_0_p_hit1 ]
C:/tmp/_gbsbuild/obj/scene_0_projectiles.rel
                                          [ scene_0_projectiles ]
C:/tmp/_gbsbuild/obj/scene_0_sprites.rel  [ scene_0_sprites ]
C:/tmp/_gbsbuild/obj/scene_0_triggers.rel
                                          [ scene_0_triggers ]
C:/tmp/_gbsbuild/obj/scene_0.rel          [ scene_0 ]
C:/tmp/_gbsbuild/obj/scene_1_actors.rel   [ scene_1_actors ]
C:/tmp/_gbsbuild/obj/scene_1_collisions.rel
                                          [ scene_1_collisions ]
C:/tmp/_gbsbuild/obj/scene_1_init.rel     [ scene_1_init ]
C:/tmp/_gbsbuild/obj/scene_1_projectiles.rel
                                          [ scene_1_projectiles ]
C:/tmp/_gbsbuild/obj/scene_1_sprites.rel  [ scene_1_sprites ]
C:/tmp/_gbsbuild/obj/scene_1_triggers.rel
                                          [ scene_1_triggers ]
C:/tmp/_gbsbuild/obj/scene_1.rel          [ scene_1 ]
C:/tmp/_gbsbuild/obj/scene_10_actors.rel  [ scene_10_actors ]
C:/tmp/_gbsbuild/obj/scene_10_collisions.rel
                                          [ scene_10_collisions ]
C:/tmp/_gbsbuild/obj/scene_10_init.rel    [ scene_10_init ]
C:/tmp/_gbsbuild/obj/scene_10_p_hit1.rel  [ scene_10_p_hit1 ]
C:/tmp/_gbsbuild/obj/scene_10_projectiles.rel
                                          [ scene_10_projectiles ]
C:/tmp/_gbsbuild/obj/scene_10_sprites.rel
                                          [ scene_10_sprites ]
C:/tmp/_gbsbuild/obj/scene_10_triggers.rel
                                          [ scene_10_triggers ]
C:/tmp/_gbsbuild/obj/scene_10.rel         [ scene_10 ]
C:/tmp/_gbsbuild/obj/scene_11_actors.rel  [ scene_11_actors ]
C:/tmp/_gbsbuild/obj/scene_11_collisions.rel
                                          [ scene_11_collisions ]
C:/tmp/_gbsbuild/obj/scene_11_init.rel    [ scene_11_init ]
C:/tmp/_gbsbuild/obj/scene_11_p_hit1.rel  [ scene_11_p_hit1 ]
C:/tmp/_gbsbuild/obj/scene_11_projectiles.rel
                                          [ scene_11_projectiles ]
C:/tmp/_gbsbuild/obj/scene_11_sprites.rel
                                          [ scene_11_sprites ]
C:/tmp/_gbsbuild/obj/scene_11_triggers.rel
                                          [ scene_11_triggers ]
C:/tmp/_gbsbuild/obj/scene_11.rel         [ scene_11 ]
C:/tmp/_gbsbuild/obj/scene_12_actors.rel  [ scene_12_actors ]
C:/tmp/_gbsbuild/obj/scene_12_collisions.rel
                                          [ scene_12_collisions ]
C:/tmp/_gbsbuild/obj/scene_12_init.rel    [ scene_12_init ]
C:/tmp/_gbsbuild/obj/scene_12_p_hit1.rel  [ scene_12_p_hit1 ]
C:/tmp/_gbsbuild/obj/scene_12_projectiles.rel
                                          [ scene_12_projectiles ]
C:/tmp/_gbsbuild/obj/scene_12_sprites.rel
                                          [ scene_12_sprites ]
C:/tmp/_gbsbuild/obj/scene_12_triggers.rel
                                          [ scene_12_triggers ]
C:/tmp/_gbsbuild/obj/scene_12.rel         [ scene_12 ]
C:/tmp/_gbsbuild/obj/scene_13_actors.rel  [ scene_13_actors ]
C:/tmp/_gbsbuild/obj/scene_13_collisions.rel
                                          [ scene_13_collisions ]
C:/tmp/_gbsbuild/obj/scene_13_init.rel    [ scene_13_init ]
C:/tmp/_gbsbuild/obj/scene_13_p_hit1.rel  [ scene_13_p_hit1 ]
C:/tmp/_gbsbuild/obj/scene_13_projectiles.rel
                                          [ scene_13_projectiles ]
C:/tmp/_gbsbuild/obj/scene_13_sprites.rel
                                          [ scene_13_sprites ]
C:/tmp/_gbsbuild/obj/scene_13_triggers.rel
                                          [ scene_13_triggers ]
C:/tmp/_gbsbuild/obj/scene_13.rel         [ scene_13 ]
C:/tmp/_gbsbuild/obj/scene_14_actors.rel  [ scene_14_actors ]
C:/tmp/_gbsbuild/obj/scene_14_collisions.rel
                                          [ scene_14_collisions ]
C:/tmp/_gbsbuild/obj/scene_14_init.rel    [ scene_14_init ]
C:/tmp/_gbsbuild/obj/scene_14_p_hit1.rel  [ scene_14_p_hit1 ]
C:/tmp/_gbsbuild/obj/scene_14_projectiles.rel
                                          [ scene_14_projectiles ]
C:/tmp/_gbsbuild/obj/scene_14_sprites.rel
                                          [ scene_14_sprites ]
C:/tmp/_gbsbuild/obj/scene_14_triggers.rel
                                          [ scene_14_triggers ]
C:/tmp/_gbsbuild/obj/scene_14.rel         [ scene_14 ]
C:/tmp/_gbsbuild/obj/scene_15_actors.rel  [ scene_15_actors ]
C:/tmp/_gbsbuild/obj/scene_15_collisions.rel
                                          [ scene_15_collisions ]
C:/tmp/_gbsbuild/obj/scene_15_init.rel    [ scene_15_init ]
C:/tmp/_gbsbuild/obj/scene_15_p_hit1.rel  [ scene_15_p_hit1 ]
C:/tmp/_gbsbuild/obj/scene_15_projectiles.rel
                                          [ scene_15_projectiles ]
C:/tmp/_gbsbuild/obj/scene_15_sprites.rel
                                          [ scene_15_sprites ]
C:/tmp/_gbsbuild/obj/scene_15_triggers.rel
                                          [ scene_15_triggers ]
C:/tmp/_gbsbuild/obj/scene_15.rel         [ scene_15 ]
C:/tmp/_gbsbuild/obj/scene_16_actors.rel  [ scene_16_actors ]
C:/tmp/_gbsbuild/obj/scene_16_collisions.rel
                                          [ scene_16_collisions ]
C:/tmp/_gbsbuild/obj/scene_16_init.rel    [ scene_16_init ]
C:/tmp/_gbsbuild/obj/scene_16_p_hit1.rel  [ scene_16_p_hit1 ]
C:/tmp/_gbsbuild/obj/scene_16_projectiles.rel
                                          [ scene_16_projectiles ]
C:/tmp/_gbsbuild/obj/scene_16_sprites.rel
                                          [ scene_16_sprites ]
C:/tmp/_gbsbuild/obj/scene_16_triggers.rel
                                          [ scene_16_triggers ]
C:/tmp/_gbsbuild/obj/scene_16.rel         [ scene_16 ]
C:/tmp/_gbsbuild/obj/scene_17_actors.rel  [ scene_17_actors ]
C:/tmp/_gbsbuild/obj/scene_17_collisions.rel
                                          [ scene_17_collisions ]
C:/tmp/_gbsbuild/obj/scene_17_init.rel    [ scene_17_init ]
C:/tmp/_gbsbuild/obj/scene_17_projectiles.rel
                                          [ scene_17_projectiles ]
C:/tmp/_gbsbuild/obj/scene_17_sprites.rel
                                          [ scene_17_sprites ]
C:/tmp/_gbsbuild/obj/scene_17_triggers.rel
                                          [ scene_17_triggers ]
C:/tmp/_gbsbuild/obj/scene_17.rel         [ scene_17 ]
C:/tmp/_gbsbuild/obj/scene_18_actors.rel  [ scene_18_actors ]
C:/tmp/_gbsbuild/obj/scene_18_collisions.rel
                                          [ scene_18_collisions ]
C:/tmp/_gbsbuild/obj/scene_18_init.rel    [ scene_18_init ]
C:/tmp/_gbsbuild/obj/scene_18_p_hit1.rel  [ scene_18_p_hit1 ]
C:/tmp/_gbsbuild/obj/scene_18_projectiles.rel
                                          [ scene_18_projectiles ]
C:/tmp/_gbsbuild/obj/scene_18_sprites.rel
                                          [ scene_18_sprites ]
C:/tmp/_gbsbuild/obj/scene_18_triggers.rel
                                          [ scene_18_triggers ]
C:/tmp/_gbsbuild/obj/scene_18.rel         [ scene_18 ]
C:/tmp/_gbsbuild/obj/scene_19_actors.rel  [ scene_19_actors ]
C:/tmp/_gbsbuild/obj/scene_19_collisions.rel
                                          [ scene_19_collisions ]
C:/tmp/_gbsbuild/obj/scene_19_init.rel    [ scene_19_init ]
C:/tmp/_gbsbuild/obj/scene_19_p_hit1.rel  [ scene_19_p_hit1 ]
C:/tmp/_gbsbuild/obj/scene_19_projectiles.rel
                                          [ scene_19_projectiles ]
C:/tmp/_gbsbuild/obj/scene_19_sprites.rel
                                          [ scene_19_sprites ]
C:/tmp/_gbsbuild/obj/scene_19_triggers.rel
                                          [ scene_19_triggers ]
C:/tmp/_gbsbuild/obj/scene_19.rel         [ scene_19 ]
C:/tmp/_gbsbuild/obj/scene_2_actors.rel   [ scene_2_actors ]
C:/tmp/_gbsbuild/obj/scene_2_collisions.rel
                                          [ scene_2_collisions ]
C:/tmp/_gbsbuild/obj/scene_2_init.rel     [ scene_2_init ]
C:/tmp/_gbsbuild/obj/scene_2_projectiles.rel
                                          [ scene_2_projectiles ]
C:/tmp/_gbsbuild/obj/scene_2_sprites.rel  [ scene_2_sprites ]
C:/tmp/_gbsbuild/obj/scene_2_triggers.rel
                                          [ scene_2_triggers ]
C:/tmp/_gbsbuild/obj/scene_2.rel          [ scene_2 ]
C:/tmp/_gbsbuild/obj/scene_20_actors.rel  [ scene_20_actors ]
C:/tmp/_gbsbuild/obj/scene_20_collisions.rel
                                          [ scene_20_collisions ]
C:/tmp/_gbsbuild/obj/scene_20_init.rel    [ scene_20_init ]
C:/tmp/_gbsbuild/obj/scene_20_projectiles.rel
                                          [ scene_20_projectiles ]
C:/tmp/_gbsbuild/obj/scene_20_sprites.rel
                                          [ scene_20_sprites ]
C:/tmp/_gbsbuild/obj/scene_20_triggers.rel
                                          [ scene_20_triggers ]
C:/tmp/_gbsbuild/obj/scene_20.rel         [ scene_20 ]
C:/tmp/_gbsbuild/obj/scene_21_actors.rel  [ scene_21_actors ]
C:/tmp/_gbsbuild/obj/scene_21_collisions.rel
                                          [ scene_21_collisions ]
C:/tmp/_gbsbuild/obj/scene_21_init.rel    [ scene_21_init ]
C:/tmp/_gbsbuild/obj/scene_21_projectiles.rel
                                          [ scene_21_projectiles ]
C:/tmp/_gbsbuild/obj/scene_21_sprites.rel
                                          [ scene_21_sprites ]
C:/tmp/_gbsbuild/obj/scene_21_triggers.rel
                                          [ scene_21_triggers ]
C:/tmp/_gbsbuild/obj/scene_21.rel         [ scene_21 ]
C:/tmp/_gbsbuild/obj/scene_22_actors.rel  [ scene_22_actors ]
C:/tmp/_gbsbuild/obj/scene_22_collisions.rel
                                          [ scene_22_collisions ]
C:/tmp/_gbsbuild/obj/scene_22_init.rel    [ scene_22_init ]
C:/tmp/_gbsbuild/obj/scene_22_projectiles.rel
                                          [ scene_22_projectiles ]
C:/tmp/_gbsbuild/obj/scene_22_sprites.rel
                                          [ scene_22_sprites ]
C:/tmp/_gbsbuild/obj/scene_22_triggers.rel
                                          [ scene_22_triggers ]
C:/tmp/_gbsbuild/obj/scene_22.rel         [ scene_22 ]
C:/tmp/_gbsbuild/obj/scene_3_collisions.rel
                                          [ scene_3_collisions ]
C:/tmp/_gbsbuild/obj/scene_3_init.rel     [ scene_3_init ]
C:/tmp/_gbsbuild/obj/scene_3.rel          [ scene_3 ]
C:/tmp/_gbsbuild/obj/scene_7_actors.rel   [ scene_7_actors ]
C:/tmp/_gbsbuild/obj/scene_7_collisions.rel
                                          [ scene_7_collisions ]
C:/tmp/_gbsbuild/obj/scene_7_init.rel     [ scene_7_init ]
C:/tmp/_gbsbuild/obj/scene_7_projectiles.rel
                                          [ scene_7_projectiles ]
C:/tmp/_gbsbuild/obj/scene_7_sprites.rel  [ scene_7_sprites ]
C:/tmp/_gbsbuild/obj/scene_7_triggers.rel
                                          [ scene_7_triggers ]
C:/tmp/_gbsbuild/obj/scene_7.rel          [ scene_7 ]
C:/tmp/_gbsbuild/obj/scene_8_actors.rel   [ scene_8_actors ]
C:/tmp/_gbsbuild/obj/scene_8_collisions.rel
                                          [ scene_8_collisions ]
C:/tmp/_gbsbuild/obj/scene_8_init.rel     [ scene_8_init ]
C:/tmp/_gbsbuild/obj/scene_8_p_hit1.rel   [ scene_8_p_hit1 ]
C:/tmp/_gbsbuild/obj/scene_8_projectiles.rel
                                          [ scene_8_projectiles ]
C:/tmp/_gbsbuild/obj/scene_8_sprites.rel  [ scene_8_sprites ]
C:/tmp/_gbsbuild/obj/scene_8_triggers.rel
                                          [ scene_8_triggers ]
C:/tmp/_gbsbuild/obj/scene_8.rel          [ scene_8 ]
C:/tmp/_gbsbuild/obj/scene_logo_collisions.rel
                                          [ scene_logo_collisions ]
C:/tmp/_gbsbuild/obj/scene_logo_init.rel  [ scene_logo_init ]
C:/tmp/_gbsbuild/obj/scene_logo_projectiles.rel
                                          [ scene_logo_projectiles ]
C:/tmp/_gbsbuild/obj/scene_logo_sprites.rel
                                          [ scene_logo_sprites ]
C:/tmp/_gbsbuild/obj/scene_logo.rel       [ scene_logo ]
C:/tmp/_gbsbuild/obj/scene_title_screen_collisions.rel
                                          [ scene_title_screen_collisions ]
C:/tmp/_gbsbuild/obj/scene_title_screen_init.rel
                                          [ scene_title_screen_init ]
C:/tmp/_gbsbuild/obj/scene_title_screen.rel
                                          [ scene_title_screen ]
C:/tmp/_gbsbuild/obj/script_12.rel        [ script_12 ]
C:/tmp/_gbsbuild/obj/script_14.rel        [ script_14 ]
C:/tmp/_gbsbuild/obj/script_engine_init.rel
                                          [  ]
C:/tmp/_gbsbuild/obj/script_init_menu.rel
                                          [ script_init_menu ]
C:/tmp/_gbsbuild/obj/script_input_0.rel   [ script_input_0 ]
C:/tmp/_gbsbuild/obj/script_input_1.rel   [ script_input_1 ]
C:/tmp/_gbsbuild/obj/sound_legacy_0.rel   [ sound_legacy_0 ]
C:/tmp/_gbsbuild/obj/sprite_bullet_tileset.rel
                                          [ sprite_bullet_tileset ]
C:/tmp/_gbsbuild/obj/sprite_bullet.rel    [ sprite_bullet ]
C:/tmp/_gbsbuild/obj/sprite_dartwallsprite_tileset.rel
                                          [ sprite_dartwallsprite_tileset ]
C:/tmp/_gbsbuild/obj/sprite_dartwallsprite.rel
                                          [ sprite_dartwallsprite ]
C:/tmp/_gbsbuild/obj/sprite_flashcard_tileset.rel
                                          [ sprite_flashcard_tileset ]
C:/tmp/_gbsbuild/obj/sprite_flashcard.rel
                                          [ sprite_flashcard ]
C:/tmp/_gbsbuild/obj/sprite_fritzfull_tileset.rel
                                          [ sprite_fritzfull_tileset ]
C:/tmp/_gbsbuild/obj/sprite_fritzfull.rel
                                          [ sprite_fritzfull ]
C:/tmp/_gbsbuild/obj/sprite_gardenbook_tileset.rel
                                          [ sprite_gardenbook_tileset ]
C:/tmp/_gbsbuild/obj/sprite_gardenbook.rel
                                          [ sprite_gardenbook ]
C:/tmp/_gbsbuild/obj/sprite_healthbar_tileset.rel
                                          [ sprite_healthbar_tileset ]
C:/tmp/_gbsbuild/obj/sprite_healthbar.rel
                                          [ sprite_healthbar ]
C:/tmp/_gbsbuild/obj/sprite_kopturfull_tileset.rel
                                          [ sprite_kopturfull_tileset ]
C:/tmp/_gbsbuild/obj/sprite_kopturfull.rel
                                          [ sprite_kopturfull ]
C:/tmp/_gbsbuild/obj/sprite_levelbook_tileset.rel
                                          [ sprite_levelbook_tileset ]
C:/tmp/_gbsbuild/obj/sprite_levelbook.rel
                                          [ sprite_levelbook ]
C:/tmp/_gbsbuild/obj/sprite_locked_door_tileset.rel
                                          [ sprite_locked_door_tileset ]
C:/tmp/_gbsbuild/obj/sprite_locked_door.rel
                                          [ sprite_locked_door ]
C:/tmp/_gbsbuild/obj/sprite_machine_tileset.rel
                                          [ sprite_machine_tileset ]
C:/tmp/_gbsbuild/obj/sprite_machine.rel   [ sprite_machine ]
C:/tmp/_gbsbuild/obj/sprite_player_tileset.rel
                                          [ sprite_player_tileset ]
C:/tmp/_gbsbuild/obj/sprite_player.rel    [ sprite_player ]
C:/tmp/_gbsbuild/obj/sprite_rosies_tileset.rel
                                          [ sprite_rosies_tileset ]
C:/tmp/_gbsbuild/obj/sprite_rosies.rel    [ sprite_rosies ]
C:/tmp/_gbsbuild/obj/sprite_shield_sprite_16x16_tileset.rel
                                          [ sprite_shield_sprite_16x16_tiles ]
C:/tmp/_gbsbuild/obj/sprite_shield_sprite_16x16.rel
                                          [ sprite_shield_sprite_16x16 ]
C:/tmp/_gbsbuild/obj/sprite_signpost_tileset.rel
                                          [ sprite_signpost_tileset ]
C:/tmp/_gbsbuild/obj/sprite_signpost.rel  [ sprite_signpost ]
C:/tmp/_gbsbuild/obj/sprite_squirrelfull_tileset.rel
                                          [ sprite_squirrelfull_tileset ]
C:/tmp/_gbsbuild/obj/sprite_squirrelfull.rel
                                          [ sprite_squirrelfull ]
C:/tmp/_gbsbuild/obj/sprite_sword_tileset.rel
                                          [ sprite_sword_tileset ]
C:/tmp/_gbsbuild/obj/sprite_sword.rel     [ sprite_sword ]
C:/tmp/_gbsbuild/obj/sprite_swordsprite_16x16_tileset.rel
                                          [ sprite_swordsprite_16x16_tileset ]
C:/tmp/_gbsbuild/obj/sprite_swordsprite_16x16.rel
                                          [ sprite_swordsprite_16x16 ]
C:/tmp/_gbsbuild/obj/sprite_tottenfull_tileset.rel
                                          [ sprite_tottenfull_tileset ]
C:/tmp/_gbsbuild/obj/sprite_tottenfull.rel
                                          [ sprite_tottenfull ]
C:/tmp/_gbsbuild/obj/spritesheet_none.rel
                                          [ spritesheet_none ]
C:/tmp/_gbsbuild/obj/trigger_0_interact.rel
                                          [ trigger_0_interact ]
C:/tmp/_gbsbuild/obj/trigger_1_interact.rel
                                          [ trigger_1_interact ]
C:/tmp/_gbsbuild/obj/trigger_10_interact.rel
                                          [ trigger_10_interact ]
C:/tmp/_gbsbuild/obj/trigger_11_interact.rel
                                          [ trigger_11_interact ]
C:/tmp/_gbsbuild/obj/trigger_12_interact.rel
                                          [ trigger_12_interact ]
C:/tmp/_gbsbuild/obj/trigger_13_interact.rel
                                          [ trigger_13_interact ]
C:/tmp/_gbsbuild/obj/trigger_14_interact.rel
                                          [ trigger_14_interact ]
C:/tmp/_gbsbuild/obj/trigger_15_interact.rel
                                          [ trigger_15_interact ]
C:/tmp/_gbsbuild/obj/trigger_16_interact.rel
                                          [ trigger_16_interact ]
C:/tmp/_gbsbuild/obj/trigger_17_interact.rel
                                          [ trigger_17_interact ]
C:/tmp/_gbsbuild/obj/trigger_18_interact.rel
                                          [ trigger_18_interact ]
C:/tmp/_gbsbuild/obj/trigger_19_interact.rel
                                          [ trigger_19_interact ]
C:/tmp/_gbsbuild/obj/trigger_2_interact.rel
                                          [ trigger_2_interact ]
C:/tmp/_gbsbuild/obj/trigger_20_interact.rel
                                          [ trigger_20_interact ]
C:/tmp/_gbsbuild/obj/trigger_21_interact.rel
                                          [ trigger_21_interact ]
C:/tmp/_gbsbuild/obj/trigger_22_interact.rel
                                          [ trigger_22_interact ]
C:/tmp/_gbsbuild/obj/trigger_23_interact.rel
                                          [ trigger_23_interact ]
C:/tmp/_gbsbuild/obj/trigger_24_interact.rel
                                          [ trigger_24_interact ]
C:/tmp/_gbsbuild/obj/trigger_25_interact.rel
                                          [ trigger_25_interact ]
C:/tmp/_gbsbuild/obj/trigger_26_interact.rel
                                          [ trigger_26_interact ]
C:/tmp/_gbsbuild/obj/trigger_27_interact.rel
                                          [ trigger_27_interact ]
C:/tmp/_gbsbuild/obj/trigger_28_interact.rel
                                          [ trigger_28_interact ]
C:/tmp/_gbsbuild/obj/trigger_29_interact.rel
                                          [ trigger_29_interact ]
C:/tmp/_gbsbuild/obj/trigger_3_interact.rel
                                          [ trigger_3_interact ]
C:/tmp/_gbsbuild/obj/trigger_31_interact.rel
                                          [ trigger_31_interact ]
C:/tmp/_gbsbuild/obj/trigger_32_interact.rel
                                          [ trigger_32_interact ]
C:/tmp/_gbsbuild/obj/trigger_33_interact.rel
                                          [ trigger_33_interact ]
C:/tmp/_gbsbuild/obj/trigger_34_interact.rel
                                          [ trigger_34_interact ]
C:/tmp/_gbsbuild/obj/trigger_35_interact.rel
                                          [ trigger_35_interact ]
C:/tmp/_gbsbuild/obj/trigger_4_interact.rel
                                          [ trigger_4_interact ]
C:/tmp/_gbsbuild/obj/trigger_42_interact.rel
                                          [ trigger_42_interact ]
C:/tmp/_gbsbuild/obj/trigger_43_interact.rel
                                          [ trigger_43_interact ]
C:/tmp/_gbsbuild/obj/trigger_44_interact.rel
                                          [ trigger_44_interact ]
C:/tmp/_gbsbuild/obj/trigger_5_interact.rel
                                          [ trigger_5_interact ]
C:/tmp/_gbsbuild/obj/trigger_6_interact.rel
                                          [ trigger_6_interact ]
C:/tmp/_gbsbuild/obj/trigger_7_interact.rel
                                          [ trigger_7_interact ]
C:/tmp/_gbsbuild/obj/trigger_8_interact.rel
                                          [ trigger_8_interact ]
C:/tmp/_gbsbuild/obj/trigger_9_interact.rel
                                          [ trigger_9_interact ]
C:/tmp/_gbsbuild/obj/main.rel             [ main ]
C:/tmp/_gbsbuild/obj/adventure.rel        [ adventure ]
C:/tmp/_gbsbuild/obj/logo.rel             [ logo ]
C:/tmp/_gbsbuild/obj/platform.rel         [ platform ]
C:/tmp/_gbsbuild/obj/pointnclick.rel      [ pointnclick ]
C:/tmp/_gbsbuild/obj/shmup.rel            [ shmup ]
C:/tmp/_gbsbuild/obj/states_ptrs.rel      [  ]
C:/tmp/_gbsbuild/obj/topdown.rel          [ topdown ]


Libraries Linked                          [ object file ]

C:\tmp/_gbstools/gbdk/lib/gb/gb.lib       [ fill_rect_wi.o ]
C:\tmp/_gbstools/gbdk/lib/sm83/sm83.lib   [ rand.o ]
lib/hUGEDriver.lib                        [ hUGEDriver.o ]
C:\tmp/_gbstools/gbdk/lib/gb/gb.lib       [ sfr.o ]
C:\tmp/_gbstools/gbdk/lib/gb/gb.lib       [ get_data.o ]
C:\tmp/_gbstools/gbdk/lib/gb/gb.lib       [ get_tile.o ]
C:\tmp/_gbstools/gbdk/lib/gb/gb.lib       [ cgb_palettes.o ]
C:\tmp/_gbstools/gbdk/lib/gb/gb.lib       [ metasprites_hide_spr.o ]
C:\tmp/_gbstools/gbdk/lib/sm83/sm83.lib   [ mul.o ]
C:\tmp/_gbstools/gbdk/lib/gb/gb.lib       [ set_tile.o ]
C:\tmp/_gbstools/gbdk/lib/sm83/sm83.lib   [ abs.o ]
C:\tmp/_gbstools/gbdk/lib/gb/gb.lib       [ set_wi_t.o ]
C:\tmp/_gbstools/gbdk/lib/gb/gb.lib       [ set_data.o ]
C:\tmp/_gbstools/gbdk/lib/sm83/sm83.lib   [ reverse.o ]
C:\tmp/_gbstools/gbdk/lib/gb/gb.lib       [ far_ptr.o ]
C:\tmp/_gbstools/gbdk/lib/gb/gb.lib       [ sgb.o ]
C:\tmp/_gbstools/gbdk/lib/gb/gb.lib       [ lcd.o ]
C:\tmp/_gbstools/gbdk/lib/gb/gb.lib       [ fill_rect.o ]
C:\tmp/_gbstools/gbdk/lib/gb/gb.lib       [ cpy_data.o ]
C:\tmp/_gbstools/gbdk/lib/gb/gb.lib       [ fill_rect_bk.o ]
C:\tmp/_gbstools/gbdk/lib/gb/gb.lib       [ pad.o ]
C:\tmp/_gbstools/gbdk/lib/gb/gb.lib       [ metasprites.o ]
C:\tmp/_gbstools/gbdk/lib/sm83/sm83.lib   [ __sdcc_call_hl.o ]
C:\tmp/_gbstools/gbdk/lib/sm83/sm83.lib   [ memcpy.o ]
C:\tmp/_gbstools/gbdk/lib/sm83/sm83.lib   [ _memset.o ]
C:\tmp/_gbstools/gbdk/lib/gb/gb.lib       [ set_xy_t.o ]
C:\tmp/_gbstools/gbdk/lib/gb/gb.lib       [ ___sdcc_bcall_ehl.o ]
C:\tmp/_gbstools/gbdk/lib/gb/gb.lib       [ cgb.o ]
C:\tmp/_gbstools/gbdk/lib/sm83/sm83.lib   [ div.o ]
C:\tmp/_gbstools/gbdk/lib/gb/gb.lib       [ set_bk_t.o ]

ASxxxx Linker V03.00/V05.40 + sdld,  page 81.

User Base Address Definitions

_DATA=0xC0A0
_CODE=0x0200
ASxxxx Linker V03.00/V05.40 + sdld,  page 82.

User Global Definitions

.STACK=0xDF00
_shadow_OAM=0xC000
.refresh_OAM=0xFF80
__start_save=12

